******************************************************************************
                  TI ARM Linker PC v15.12.1                    
******************************************************************************
>> Linked Tue Oct 13 18:18:41 2020

OUTPUT FILE NAME:   <JTKJ_labra.out>
ENTRY POINT SYMBOL: "ResetISR"  address: 000068c5


MEMORY CONFIGURATION

         name            origin    length      used     unused   attr    fill
----------------------  --------  ---------  --------  --------  ----  --------
  FLASH                 00000000   00020000  00008135  00017ecb  R  X
  SRAM                  20000000   00005000  00001c75  0000338b  RW X


SEGMENT ALLOCATION MAP

run origin  load origin   length   init length attrs members
----------  ----------- ---------- ----------- ----- -------
00000000    00000000    0000003c   0000003c    r--
  00000000    00000000    0000003c   0000003c    r-- .resetVecs
00000100    00000100    000080b4   000080b4    r-x
  00000100    00000100    0000003c   0000003c    r-- .const:ti_sysbios_knl_Task_Object__PARAMS__C
  0000013c    0000013c    00000034   00000034    r-- .const:ti_sysbios_knl_Mailbox_Object__PARAMS__C
  00000170    00000170    00000030   00000030    r-- .const:ti_sysbios_family_arm_m3_Hwi_Object__PARAMS__C
  000001a0    000001a0    0000002c   0000002c    r-- .const:ti_sysbios_hal_Hwi_Object__PARAMS__C
  000001cc    000001cc    00000028   00000028    r-- .const:ti_sysbios_heaps_HeapMem_Module__FXNS__C
  000001f4    000001f4    00000028   00000028    r-- .const:ti_sysbios_knl_Swi_Object__PARAMS__C
  0000021c    0000021c    00000024   00000024    r-- .const:ti_sysbios_gates_GateHwi_Module__FXNS__C
  00000240    00000240    00000024   00000024    r-- .const:ti_sysbios_gates_GateMutex_Module__FXNS__C
  00000264    00000264    00000024   00000024    r-- .const:ti_sysbios_heaps_HeapMem_Object__PARAMS__C
  00000288    00000288    00000024   00000024    r-- .const:ti_sysbios_knl_Clock_Object__PARAMS__C
  000002ac    000002ac    00000024   00000024    r-- .const:ti_sysbios_knl_Semaphore_Object__PARAMS__C
  000002d0    000002d0    00000020   00000020    r-- .const:ti_sysbios_family_arm_m3_Hwi_Object__DESC__C
  000002f0    000002f0    00000020   00000020    r-- .const:ti_sysbios_gates_GateHwi_Object__DESC__C
  00000310    00000310    00000020   00000020    r-- .const:ti_sysbios_gates_GateMutex_Object__DESC__C
  00000330    00000330    00000020   00000020    r-- .const:ti_sysbios_hal_Hwi_Object__DESC__C
  00000350    00000350    00000020   00000020    r-- .const:ti_sysbios_heaps_HeapMem_Object__DESC__C
  00000370    00000370    00000020   00000020    r-- .const:ti_sysbios_knl_Clock_Object__DESC__C
  00000390    00000390    00000020   00000020    r-- .const:ti_sysbios_knl_Mailbox_Object__DESC__C
  000003b0    000003b0    00000020   00000020    r-- .const:ti_sysbios_knl_Queue_Object__DESC__C
  000003d0    000003d0    00000020   00000020    r-- .const:ti_sysbios_knl_Semaphore_Object__DESC__C
  000003f0    000003f0    00000020   00000020    r-- .const:ti_sysbios_knl_Swi_Object__DESC__C
  00000410    00000410    00000020   00000020    r-- .const:ti_sysbios_knl_Task_Object__DESC__C
  00000430    00000430    00000018   00000018    r-- .const:ti_sysbios_gates_GateHwi_Object__PARAMS__C
  00000448    00000448    00000018   00000018    r-- .const:ti_sysbios_gates_GateMutex_Object__PARAMS__C
  00000460    00000460    00000018   00000018    r-- .const:ti_sysbios_knl_Queue_Object__PARAMS__C
  00000478    00000478    00000008   00000008    r-- .const:ti_sysbios_knl_Idle_funcList__C
  00000484    00000484    00000004   00000004    r-- .const:ti_sysbios_family_arm_cc26xx_Timer_startupNeeded__C
  00000488    00000488    00000004   00000004    r-- .const:ti_sysbios_family_arm_m3_Hwi_E_alreadyDefined__C
  0000048c    0000048c    00000004   00000004    r-- .const:ti_sysbios_family_arm_m3_Hwi_E_hwiLimitExceeded__C
  00000490    00000490    00000004   00000004    r-- .const:ti_sysbios_family_arm_m3_Hwi_NUM_INTERRUPTS__C
  00000494    00000494    00000004   00000004    r-- .const:ti_sysbios_family_arm_m3_Hwi_Object__count__C
  00000498    00000498    00000004   00000004    r-- .const:ti_sysbios_family_arm_m3_Hwi_Object__table__C
  0000049c    0000049c    00000004   00000004    r-- .const:ti_sysbios_family_arm_m3_Hwi_ccr__C
  000004a0    000004a0    00000004   00000004    r-- .const:ti_sysbios_family_arm_m3_Hwi_excHandlerFunc__C
  000004a4    000004a4    00000004   00000004    r-- .const:ti_sysbios_family_arm_m3_Hwi_nullIsrFunc__C
  000004a8    000004a8    00000004   00000004    r-- .const:ti_sysbios_family_arm_m3_Hwi_numSparseInterrupts__C
  000004ac    000004ac    00000004   00000004    r-- .const:ti_sysbios_family_arm_m3_Hwi_priGroup__C
  000004b0    000004b0    00000004   00000004    r-- .const:ti_sysbios_family_arm_m3_TaskSupport_stackAlignment__C
  000004b4    000004b4    00000004   00000004    r-- .const:ti_sysbios_heaps_HeapMem_E_memory__C
  000004b8    000004b8    00000004   00000004    r-- .const:ti_sysbios_heaps_HeapMem_Module__gateObj__C
  000004bc    000004bc    00000004   00000004    r-- .const:ti_sysbios_heaps_HeapMem_Object__count__C
  000004c0    000004c0    00000004   00000004    r-- .const:ti_sysbios_heaps_HeapMem_Object__table__C
  000004c4    000004c4    00000004   00000004    r-- .const:ti_sysbios_heaps_HeapMem_reqAlign__C
  000004c8    000004c8    00000004   00000004    r-- .const:ti_sysbios_knl_Clock_serviceMargin__C
  000004cc    000004cc    00000004   00000004    r-- .const:ti_sysbios_knl_Mailbox_Object__count__C
  000004d0    000004d0    00000004   00000004    r-- .const:ti_sysbios_knl_Mailbox_Object__table__C
  000004d4    000004d4    00000004   00000004    r-- .const:ti_sysbios_knl_Queue_Object__count__C
  000004d8    000004d8    00000004   00000004    r-- .const:ti_sysbios_knl_Queue_Object__table__C
  000004dc    000004dc    00000004   00000004    r-- .const:ti_sysbios_knl_Swi_Object__count__C
  000004e0    000004e0    00000004   00000004    r-- .const:ti_sysbios_knl_Swi_Object__table__C
  000004e4    000004e4    00000004   00000004    r-- .const:ti_sysbios_knl_Swi_numPriorities__C
  000004e8    000004e8    00000004   00000004    r-- .const:ti_sysbios_knl_Task_Object__count__C
  000004ec    000004ec    00000004   00000004    r-- .const:ti_sysbios_knl_Task_Object__table__C
  000004f0    000004f0    00000004   00000004    r-- .const:ti_sysbios_knl_Task_allBlockedFunc__C
  000004f4    000004f4    00000004   00000004    r-- .const:ti_sysbios_knl_Task_defaultStackHeap__C
  000004f8    000004f8    00000004   00000004    r-- .const:ti_sysbios_knl_Task_defaultStackSize__C
  000004fc    000004fc    00000004   00000004    r-- .const:ti_sysbios_knl_Task_numConstructedTasks__C
  00000502    00000502    00000002   00000002    r-- .const:ti_sysbios_family_arm_cc26xx_Timer_Module__id__C
  00000504    00000504    00000002   00000002    r-- .const:ti_sysbios_family_arm_cc26xx_TimestampProvider_useClockTimer__C
  00000506    00000506    00000002   00000002    r-- .const:ti_sysbios_family_arm_m3_Hwi_Module__id__C
  00000508    00000508    00000002   00000002    r-- .const:ti_sysbios_gates_GateHwi_Module__id__C
  0000050a    0000050a    00000002   00000002    r-- .const:ti_sysbios_gates_GateMutex_Module__id__C
  0000050c    0000050c    00000002   00000002    r-- .const:ti_sysbios_heaps_HeapMem_Module__id__C
  0000050e    0000050e    00000002   00000002    r-- .const:ti_sysbios_knl_Task_initStackFlag__C
  00000510    00000510    00000001   00000001    r-- .const:ti_sysbios_knl_Clock_tickMode__C
  00000514    00000514    00000008   00000008    r-- .const:xdc_runtime_Startup_firstFxns__C
  0000051c    0000051c    00000008   00000008    r-- .const:xdc_runtime_Startup_lastFxns__C
  00000524    00000524    00000004   00000004    r-- .const:xdc_runtime_Assert_E_assertFailed__C
  00000528    00000528    00000004   00000004    r-- .const:xdc_runtime_Error_E_memory__C
  0000052c    0000052c    00000004   00000004    r-- .const:xdc_runtime_Error_policyFxn__C
  00000530    00000530    00000004   00000004    r-- .const:xdc_runtime_IGateProvider_Interface__BASE__C
  00000534    00000534    00000004   00000004    r-- .const:xdc_runtime_IHeap_Interface__BASE__C
  00000538    00000538    00000004   00000004    r-- .const:xdc_runtime_IModule_Interface__BASE__C
  0000053c    0000053c    00000004   00000004    r-- .const:xdc_runtime_Main_Module__diagsEnabled__C
  00000540    00000540    00000004   00000004    r-- .const:xdc_runtime_Main_Module__diagsIncluded__C
  00000544    00000544    00000004   00000004    r-- .const:xdc_runtime_Main_Module__diagsMask__C
  00000548    00000548    00000004   00000004    r-- .const:xdc_runtime_Memory_defaultHeapInstance__C
  0000054c    0000054c    00000004   00000004    r-- .const:xdc_runtime_Startup_execImpl__C
  00000550    00000550    00000004   00000004    r-- .const:xdc_runtime_Startup_maxPasses__C
  00000554    00000554    00000004   00000004    r-- .const:xdc_runtime_Startup_sfxnRts__C
  00000558    00000558    00000004   00000004    r-- .const:xdc_runtime_Startup_sfxnTab__C
  0000055c    0000055c    00000004   00000004    r-- .const:xdc_runtime_Startup_startModsFxn__C
  00000560    00000560    00000004   00000004    r-- .const:xdc_runtime_SysCallback_abortFxn__C
  00000564    00000564    00000004   00000004    r-- .const:xdc_runtime_SysCallback_exitFxn__C
  00000568    00000568    00000004   00000004    r-- .const:xdc_runtime_System_abortFxn__C
  0000056c    0000056c    00000004   00000004    r-- .const:xdc_runtime_System_exitFxn__C
  00000570    00000570    00000004   00000004    r-- .const:xdc_runtime_System_maxAtexitHandlers__C
  00000574    00000574    00000004   00000004    r-- .const:xdc_runtime_Text_charTab__C
  00000578    00000578    00000004   00000004    r-- .const:xdc_runtime_Text_nameEmpty__C
  0000057c    0000057c    00000004   00000004    r-- .const:xdc_runtime_Text_nameStatic__C
  00000580    00000580    00000004   00000004    r-- .const:xdc_runtime_Text_nameUnknown__C
  00000584    00000584    00000002   00000002    r-- .const:xdc_runtime_Main_Module__id__C
  00000586    00000586    00000002   00000002    r-- .const:xdc_runtime_Memory_Module__id__C
  00000588    00000588    00000002   00000002    r-- .const:xdc_runtime_Text_charCnt__C
  0000058a    0000058a    00000002   00000002    r-- .const:xdc_runtime_Text_isLoaded__C
  0000058c    0000058c    00000001   00000001    r-- .const:xdc_runtime_Error_policy__C
  00000590    00000590    00000004   00000004    r-- .const:ti_sysbios_rom_ROM_AONRTCChannelEnable
  00000594    00000594    00000004   00000004    r-- .const:ti_sysbios_rom_ROM_AONRTCCompareValueSet
  00000598    00000598    00000004   00000004    r-- .const:ti_sysbios_rom_ROM_AONRTCCurrentCompareValueGet
  0000059c    0000059c    00000004   00000004    r-- .const:ti_sysbios_rom_ROM_AONRTCEventClear
  000005a0    000005a0    00000004   00000004    r-- .const:ti_sysbios_rom_ROM_ti_sysbios_family_arm_cc26xx_Timer_getCount64__E
  000005a4    000005a4    00000004   00000004    r-- .const:ti_sysbios_rom_ROM_ti_sysbios_family_arm_cc26xx_Timer_getCurrentTick__E
  000005a8    000005a8    00000004   00000004    r-- .const:ti_sysbios_rom_ROM_ti_sysbios_family_arm_cc26xx_Timer_getMaxTicks__E
  000005ac    000005ac    00000004   00000004    r-- .const:ti_sysbios_rom_ROM_ti_sysbios_family_arm_cc26xx_Timer_initDevice__I
  000005b0    000005b0    00000004   00000004    r-- .const:ti_sysbios_rom_ROM_ti_sysbios_family_arm_cc26xx_Timer_setNextTick__E
  000005b4    000005b4    00000004   00000004    r-- .const:ti_sysbios_rom_ROM_ti_sysbios_family_arm_cc26xx_Timer_setThreshold__I
  000005b8    000005b8    00000004   00000004    r-- .const:ti_sysbios_rom_ROM_ti_sysbios_family_arm_cc26xx_Timer_start__E
  000005bc    000005bc    00000004   00000004    r-- .const:ti_sysbios_rom_ROM_ti_sysbios_family_arm_cc26xx_TimestampProvider_get32__E
  000005c0    000005c0    00000004   00000004    r-- .const:ti_sysbios_rom_ROM_xdc_runtime_Startup_getState__I
  000005c4    000005c4    00000004   00000004    r-- .const:ti_sysbios_rom_ROM_xdc_runtime_System_SupportProxy_abort__E
  000005c8    000005c8    00000004   00000004    r-- .const:ti_sysbios_rom_ROM_xdc_runtime_System_SupportProxy_exit__E
  000005cc    000005cc    00000004   00000004    r-- .const:ti_sysbios_gates_GateMutex_Instance_State_sem__O
  000005d0    000005d0    00000004   00000004    r-- .const:ti_sysbios_knl_Clock_Module_State_clockQ__O
  000005d4    000005d4    00000004   00000004    r-- .const:ti_sysbios_knl_Mailbox_Instance_State_dataQue__O
  000005d8    000005d8    00000004   00000004    r-- .const:ti_sysbios_knl_Mailbox_Instance_State_dataSem__O
  000005dc    000005dc    00000004   00000004    r-- .const:ti_sysbios_knl_Mailbox_Instance_State_freeQue__O
  000005e0    000005e0    00000004   00000004    r-- .const:ti_sysbios_knl_Mailbox_Instance_State_freeSem__O
  000005e4    000005e4    00000004   00000004    r-- .const:ti_sysbios_knl_Semaphore_Instance_State_pendQ__O
  000005e8    000005e8    00000004   00000004    r-- .const:ti_sysbios_knl_Task_Module_State_inactiveQ__O
  000005ec    000005ec    00007440   00007440    r-x .text
  00007a30    00007a30    00000415   00000415    r-- .const
  00007e48    00007e48    0000036c   0000036c    r-- .cinit
0001ffa8    0001ffa8    00000058   00000058    r--
  0001ffa8    0001ffa8    00000058   00000058    r-- .ccfg
20000000    20000000    000000c8   00000000    rw-
  20000000    20000000    000000c8   00000000    rw- .vecs
20000100    20000100    000018b6   00000000    rw-
  20000100    20000100    00000044   00000000    rw- .data:ti_sysbios_knl_Task_Module__state__V
  20000144    20000144    00000034   00000000    rw- .data:ti_sysbios_family_arm_m3_Hwi_Module__state__V
  20000178    20000178    0000002c   00000000    rw- .data:ti_sysbios_knl_Clock_Module__state__V
  200001a4    200001a4    00000024   00000000    rw- .data:ti_sysbios_BIOS_Module__state__V
  200001c8    200001c8    0000001c   00000000    rw- .data:ti_sysbios_knl_Swi_Module__state__V
  200001e4    200001e4    00000008   00000000    rw- .data:ti_sysbios_family_arm_cc26xx_Timer_Module__state__V
  200001ec    200001ec    00000004   00000000    rw- .data:ti_sysbios_family_arm_cc26xx_TimestampProvider_Module__state__V
  200001f0    200001f0    00000008   00000000    rw- .data:xdc_runtime_Startup_Module__state__V
  200001f8    200001f8    00000008   00000000    rw- .data:xdc_runtime_System_Module__state__V
  20000200    20000200    00000004   00000000    rw- .data:xdc_runtime_Memory_Module__state__V
  20000208    20000208    00001453   00000000    rw- .bss
  20001660    20001660    00000356   00000000    rw- .data
20004d00    20004d00    00000300   00000000    rw-
  20004d00    20004d00    00000300   00000000    rw- .stack


SECTION ALLOCATION MAP

 output                                  attributes/
section   page    origin      length       input sections
--------  ----  ----------  ----------   ----------------
.text      0    000005ec    00007440     
                  000005ec    000010f0     rtsv7M3_T_le_eabi.lib : _printfi.obj (.text)
                  000016dc    000009b0                           : e_pow.obj (.text)
                  0000208c    00000338     rom_sysbios.aem3 : rom_sysbios.obj (.text:xdc_runtime_System_doPrint__I)
                  000023c4    00000324     rtsv7M3_T_le_eabi.lib : trgdrv.obj (.text)
                  000026e8    00000228     drivers_cc26xxware.aem3 : PowerCC26XX.oem3 (.text:Power_sleep)
                  00002910    00000204     driverlib.lib : sys_ctrl.obj (.text:NOROM_SysCtrlSetRechargeBeforePowerDown)
                  00002b14    000001f4     rtsv7M3_T_le_eabi.lib : ull_div_t2.obj (.text)
                  00002d08    000001dc     labra_pem3.oem3 (.text:xdc_runtime_System_printfExtend__I)
                  00002ee4    000001d4     main.obj (.text:labTaskFxn)
                  000030b8    000001d0     drivers_cc26xxware.aem3 : PowerCC26XX_calibrateRCOSC.oem3 (.text:calibrateRcoscHf1)
                  00003288    000001c4                             : PINCC26XX.oem3 (.text:PIN_init)
                  0000344c    000001b6     rtsv7M3_T_le_eabi.lib : fd_add_t2.obj (.text)
                  00003602    00000002     display.aem3 : DisplayUart.oem3 (.text:DisplayUart_clear)
                  00003604    00000190     drivers_cc26xxware.aem3 : UARTCC26XX.oem3 (.text:UARTCC26XX_open)
                  00003794    00000184                             : PowerCC26XX_calibrateRCOSC.oem3 (.text:PowerCC26XX_doCalibrate)
                  00003918    00000184     rtsv7M3_T_le_eabi.lib : e_sqrt.obj (.text)
                  00003a9c    00000170     main.obj (.text:main)
                  00003c0c    00000136     rtsv7M3_T_le_eabi.lib : fd_div_t2.obj (.text)
                  00003d42    00000002     display.aem3 : DisplayUart.oem3 (.text:DisplayUart_clearLines)
                  00003d44    00000130     driverlib.lib : setup.obj (.text:NOROM_SetupAfterColdResetWakeupFromShutDownCfg3)
                  00003e74    00000124     opt3001.obj (.text:opt3001_get_data)
                  00003f98    0000011c     drivers_cc26xxware.aem3 : PowerCC26XX.oem3 (.text:Power_init)
                  000040b4    000000fc                             : UARTCC26XX.oem3 (.text:UARTCC26XX_write)
                  000041b0    000000fc     rtsv7M3_T_le_eabi.lib : fd_mul_t2.obj (.text)
                  000042ac    000000f8     drivers_cc26xxware.aem3 : I2CCC26XX.oem3 (.text:I2CCC26XX_open)
                  000043a4    000000ec                             : UARTCC26XX.oem3 (.text:UARTCC26XX_hwiIntFxn)
                  00004490    000000e8                             : I2CCC26XX.oem3 (.text:I2CCC26XX_hwiFxn)
                  00004578    000000e4     driverlib.lib : setup.obj (.text:NOROM_SetupAfterColdResetWakeupFromShutDownCfg2)
                  0000465c    000000d4     drivers_cc26xxware.aem3 : PowerCC26XX.oem3 (.text:Power_releaseDependency)
                  00004730    000000d0                             : PowerCC26XX.oem3 (.text:Power_setDependency)
                  00004800    000000d0     rtsv7M3_T_le_eabi.lib : s_scalbn.obj (.text)
                  000048d0    000000cc     driverlib.lib : setup.obj (.text:TrimAfterColdResetWakeupFromShutDown)
                  0000499c    000000c8     drivers_cc26xxware.aem3 : UARTCC26XX.oem3 (.text:UARTCC26XX_initHw)
                  00004a64    000000c2                             : I2CCC26XX.oem3 (.text:I2CCC26XX_transfer)
                  00004b26    00000002                             : PowerCC26XX.oem3 (.text:emptyClockFunc)
                  00004b28    000000bc     power_cc26xx_tirtos.aem3 : PowerCC26XX_tirtos.oem3 (.text:PowerCC26XX_standbyPolicy)
                  00004be4    000000bc     drivers_cc26xxware.aem3 : UARTCC26XX.oem3 (.text:UARTCC26XX_read)
                  00004ca0    000000b8                             : PINCC26XX.oem3 (.text:PINCC26XX_setIoCfg)
                  00004d58    000000a4     driverlib.lib : setup.obj (.text:NOROM_SetupTrimDevice)
                  00004dfc    000000a0     auto_init.aem3 : auto_init.oem3 (.text)
                  00004e9c    0000009c     rtsv7M3_T_le_eabi.lib : memcpy_t2.obj (.text)
                  00004f38    0000009a     rom_sysbios.aem3 : rom_sysbios.obj (.text:xdc_runtime_Text_putSite__E)
                  00004fd2    00000002     rtsv7M3_T_le_eabi.lib : i_div0.obj (.text)
                  00004fd4    00000098     rom_sysbios.aem3 : rom_sysbios.obj (.text:ti_sysbios_knl_Clock_workFuncDynamic__E)
                  0000506c    00000094     drivers_cc26xxware.aem3 : PINCC26XX.oem3 (.text:PIN_open)
                  00005100    00000094                             : UARTCC26XX.oem3 (.text:writeFinishedDoCallback)
                  00005194    00000094     rom_sysbios.aem3 : rom_sysbios.obj (.text:xdc_runtime_Text_putMod__E)
                  00005228    00000090     drivers_cc26xxware.aem3 : I2CCC26XX.oem3 (.text:I2CCC26XX_cancel)
                  000052b8    00000090                             : PowerCC26XX.oem3 (.text:switchXOSCHFclockFunc)
                  00005348    0000008f     opt3001.obj (.text:opt3001_setup)
                  000053d7    00000001     --HOLE-- [fill = 0]
                  000053d8    0000008c     drivers_cc26xxware.aem3 : I2CCC26XX.oem3 (.text:I2CCC26XX_primeTransfer)
                  00005464    0000008c                             : UARTCC26XX.oem3 (.text:UARTCC26XX_initIO)
                  000054f0    0000008c                             : UARTCC26XX.oem3 (.text:UARTCC26XX_writeCancel)
                  0000557c    00000086     rtsv7M3_T_le_eabi.lib : fd_cmp_t2.obj (.text:__aeabi_cdcmple)
                  00005602    00000086                           : fd_cmp_t2.obj (.text:__aeabi_cdrcmple)
                  00005688    0000007c     drivers_cc26xxware.aem3 : PowerCC26XX.oem3 (.text:disableLFClockQualifiers)
                  00005704    0000007a     rtsv7M3_T_le_eabi.lib : memset_t2.obj (.text)
                  0000577e    00000002     rom_sysbios.aem3 : rom_sysbios.obj (.text:ti_sysbios_BIOS_linkedWithIncorrectBootLibrary__E)
                  00005780    00000078     driverlib.lib : setup.obj (.text:NOROM_SetupAfterColdResetWakeupFromShutDownCfg1)
                  000057f8    00000078     drivers_cc26xxware.aem3 : UARTCC26XX.oem3 (.text:UARTCC26XX_close)
                  00005870    00000074                             : PowerCC26XX_calibrateRCOSC.oem3 (.text:PowerCC26XX_auxISR)
                  000058e4    00000074                             : PowerCC26XX_calibrateRCOSC.oem3 (.text:calibrateRcoscHf2)
                  00005958    00000074                             : UARTCC26XX.oem3 (.text:writeTxFifoFlush)
                  000059cc    00000070     driverlib.lib : chipinfo.obj (.text:NOROM_ChipInfo_GetHwRevision)
                  00005a3c    00000070     drivers_cc26xxware.aem3 : UARTCC26XX.oem3 (.text:UARTCC26XX_readCancel)
                  00005aac    0000006d     rom_sysbios.aem3 : rom_sysbios.obj (.text:xdc_runtime_System_formatNum__I)
                  00005b19    00000001     --HOLE-- [fill = 0]
                  00005b1a    00000002     labra_pem3.oem3 (.text:ti_sysbios_BIOS_nullFunc__I)
                  00005b1c    0000006c     driverlib.lib : setup.obj (.text:NOROM_SetupGetTrimForAmpcompCtrl)
                  00005b88    0000006c     drivers_cc26xxware.aem3 : PowerCC26XX.oem3 (.text:PowerCC26XX_calibrate)
                  00005bf4    0000006a     rtsv7M3_T_le_eabi.lib : copy_decompress_rle.obj (.text)
                  00005c5e    00000002     rom_sysbios.aem3 : rom_sysbios.obj (.text:ti_sysbios_knl_Clock_triggerFunc__I)
                  00005c60    00000068     driverlib.lib : setup.obj (.text:NOROM_SetupGetTrimForAnabypassValue1)
                  00005cc8    00000068                   : sys_ctrl.obj (.text:NOROM_SysCtrl_DCDC_VoltageConditionalControl)
                  00005d30    00000068     rtsv7M3_T_le_eabi.lib : trgmsg.obj (.text)
                  00005d98    00000064     drivers_cc26xxware.aem3 : I2CCC26XX.oem3 (.text:I2CCC26XX_close)
                  00005dfc    00000064                             : I2CCC26XX.oem3 (.text:I2CCC26XX_initIO)
                  00005e60    00000064     rom_sysbios.aem3 : rom_sysbios.obj (.text:ti_sysbios_family_arm_cc26xx_Timer_start__E)
                  00005ec4    00000060     drivers_cc26xxware.aem3 : PowerCC26XX_calibrateRCOSC.oem3 (.text:PowerCC26XX_RCOSC_clockFunc)
                  00005f24    00000060     rtsv7M3_T_le_eabi.lib : sprintf.obj (.text)
                  00005f84    00000060     drivers_cc26xxware.aem3 : PowerCC26XX_calibrateRCOSC.oem3 (.text:updateSubSecInc)
                  00005fe4    0000005c     driverlib.lib : osc.obj (.text:NOROM_OSCHF_AttemptToSwitchToXosc)
                  00006040    0000005c                   : sys_ctrl.obj (.text:NOROM_SysCtrlAdjustRechargeAfterPowerDown)
                  0000609c    0000005c     drivers_cc26xxware.aem3 : PINCC26XX.oem3 (.text:PIN_remove)
                  000060f8    0000005c     rtsv7M3_T_le_eabi.lib : s_frexp.obj (.text)
                  00006154    0000005c     labra_pem3.oem3 (.text:xdc_runtime_Startup_getState__I)
                  000061b0    0000005b     rom_sysbios.aem3 : rom_sysbios.obj (.text:xdc_runtime_Text_putLab__E)
                  0000620b    00000001     --HOLE-- [fill = 0]
                  0000620c    00000058     display.aem3 : DisplayUart.oem3 (.text:DisplayUart_put5)
                  00006264    00000058     drivers_cc26xxware.aem3 : I2CCC26XX.oem3 (.text:I2CCC26XX_swiFxn)
                  000062bc    00000058                             : PowerCC26XX_calibrateRCOSC.oem3 (.text:PowerCC26XX_initiateCalibration)
                  00006314    00000058                             : UARTCC26XX.oem3 (.text:UARTCC26XX_control)
                  0000636c    00000056     opt3001.obj (.text:opt3001_get_status)
                  000063c2    00000056     rtsv7M3_T_le_eabi.lib : ltoa.obj (.text)
                  00006418    00000054     drivers_cc26xxware.aem3 : PowerCC26XX.oem3 (.text:configureXOSCHF)
                  0000646c    00000050     driverlib.lib : setup.obj (.text:NOROM_SetupSetCacheModeAccordingToCcfgSetting)
                  000064bc    0000004c     display.aem3 : DisplayUart.oem3 (.text:DisplayUart_open)
                  00006508    0000004c     driverlib.lib : osc.obj (.text:NOROM_OSCClockSourceSet)
                  00006554    0000004c     drivers_cc26xxware.aem3 : UARTCC26XX.oem3 (.text:UARTCC26XX_swiIntFxn)
                  000065a0    0000004c     rtsv7M3_T_le_eabi.lib : atoi.obj (.text)
                  000065ec    0000004c                           : cpy_tbl.obj (.text)
                  00006638    0000004c     drivers_cc26xxware.aem3 : UARTCC26XX.oem3 (.text:startTxFifoEmptyClk)
                  00006684    00000048     display.aem3 : Display.oem3 (.text:Display_doOpen)
                  000066cc    00000048     drivers_cc26xxware.aem3 : I2CCC26XX.oem3 (.text:I2CCC26XX_initHw)
                  00006714    00000048     driverlib.lib : chipinfo.obj (.text:NOROM_ChipInfo_GetChipFamily)
                  0000675c    00000048                   : ddi.obj (.text:NOROM_DDI16BitfieldWrite)
                  000067a4    00000048     drivers_cc26xxware.aem3 : PINCC26XX.oem3 (.text:PIN_setOutputEnable)
                  000067ec    00000048                             : PINCC26XX.oem3 (.text:PIN_swi)
                  00006834    00000048                             : PowerCC26XX.oem3 (.text:notify)
                  0000687c    00000048     rtsv7M3_T_le_eabi.lib : fd_toi_t2.obj (.text)
                  000068c4    00000044     boot.aem3 : boot.oem3 (.text)
                  00006908    00000044     rtsv7M3_T_le_eabi.lib : fd_tou_t2.obj (.text)
                  0000694c    00000044     rom_sysbios.aem3 : rom_sysbios.obj (.text:xdc_runtime_SysMin_flush__E)
                  00006990    00000044                      : rom_sysbios.obj (.text:xdc_runtime_Text_xprintf__I)
                  000069d4    00000040     driverlib.lib : ddi.obj (.text:NOROM_DDI16BitfieldRead)
                  00006a14    00000040     rtsv7M3_T_le_eabi.lib : u_divt2.obj (.text)
                  00006a54    0000003c     driverlib.lib : osc.obj (.text:NOROM_OSC_HPOSCRelativeFrequencyOffsetGet)
                  00006a90    0000003c     drivers_cc26xxware.aem3 : PINCC26XX.oem3 (.text:PIN_setOutputValue)
                  00006acc    00000038                             : I2C.oem3 (.text:I2C_init)
                  00006b04    00000038                             : UART.oem3 (.text:UART_init)
                  00006b3c    00000038                             : UARTCC26XX.oem3 (.text:readData)
                  00006b74    00000038     rtsv7M3_T_le_eabi.lib : fs_tod_t2.obj (.text)
                  00006bac    00000038     rom_sysbios.aem3 : rom_sysbios.obj (.text:ti_sysbios_family_arm_cc26xx_Timer_getCurrentTick__E)
                  00006be4    00000038     drivers_cc26xxware.aem3 : UARTCC26XX.oem3 (.text:writeData)
                  00006c1c    00000038     rom_sysbios.aem3 : rom_sysbios.obj (.text:xdc_runtime_SysMin_putch__E)
                  00006c54    00000034     driverlib.lib : osc.obj (.text:NOROM_OSCHF_SwitchToRcOscTurnOffXosc)
                  00006c88    00000034     drivers_cc26xxware.aem3 : PINCC26XX.oem3 (.text:PIN_setConfig)
                  00006cbc    00000032     rom_sysbios.aem3 : rom_sysbios.obj (.text:ti_sysbios_family_arm_cc26xx_Timer_setNextTick__E)
                  00006cee    00000002     labra_pem3.oem3 (.text:ti_sysbios_rom_cortexm_cc26xx_CC26xx_badRomRevision__E)
                  00006cf0    00000030     drivers_cc26xxware.aem3 : I2C.oem3 (.text:I2C_open)
                  00006d20    00000030     driverlib.lib : setup.obj (.text:NOROM_SetupSetAonRtcSubSecInc)
                  00006d50    00000030     drivers_cc26xxware.aem3 : PowerCC26XX.oem3 (.text:Power_releaseConstraint)
                  00006d80    00000030                             : PowerCC26XX.oem3 (.text:Power_setConstraint)
                  00006db0    00000030                             : UART.oem3 (.text:UART_open)
                  00006de0    00000030     labra_pem3.oem3 (.text:ti_sysbios_BIOS_atExitFunc__I)
                  00006e10    00000030     labra_pem3.oem3 (.text:ti_sysbios_BIOS_startFunc__I)
                  00006e40    00000030     rom_sysbios.aem3 : rom_sysbios.obj (.text:ti_sysbios_family_arm_cc26xx_Timer_initDevice__I)
                  00006e70    00000030                      : rom_sysbios.obj (.text:ti_sysbios_family_arm_cc26xx_Timer_setThreshold__I)
                  00006ea0    00000030                      : rom_sysbios.obj (.text:xdc_runtime_SysMin_abort__E)
                  00006ed0    0000002f                      : rom_sysbios.obj (.text:xdc_runtime_Text_printVisFxn__I)
                  00006eff    00000001     --HOLE-- [fill = 0]
                  00006f00    0000002e     rtsv7M3_T_le_eabi.lib : i_tofd_t2.obj (.text)
                  00006f2e    00000002     rom_sysbios.aem3 : rom_sysbios.obj (.text:xdc_runtime_SysCallback_defaultAbort)
                  00006f30    0000002c     driverlib.lib : ddi.obj (.text:NOROM_DDI32RegWrite)
                  00006f5c    0000002c                   : setup.obj (.text:NOROM_SetupGetTrimForRadcExtCfg)
                  00006f88    0000002c     drivers_cc26xxware.aem3 : PINCC26XX.oem3 (.text:PINCC26XX_setMux)
                  00006fb4    0000002c     main.obj (.text:buttonFxn)
                  00006fe0    0000002c     rom_sysbios.aem3 : rom_sysbios.obj (.text:ti_sysbios_knl_Clock_getTicksUntilInterrupt__E)
                  0000700c    0000002a                      : rom_sysbios.obj (.text:xdc_runtime_System_putchar__I)
                  00007036    00000002                      : rom_sysbios.obj (.text:xdc_runtime_SysCallback_defaultExit)
                  00007038    00000028     driverlib.lib : aon_batmon.obj (.text:NOROM_AONBatMonTemperatureGetDegC)
                  00007060    00000028     drivers_cc26xxware.aem3 : PowerCC26XX.oem3 (.text:Power_registerNotify)
                  00007088    00000028     driverlib.lib : adi.obj (.text:SafeHapiVoid)
                  000070b0    00000028     rom_sysbios.aem3 : rom_sysbios.obj (.text:ti_sysbios_family_arm_cc26xx_Timer_getMaxTicks__E)
                  000070d8    00000026     display.aem3 : Display.oem3 (.text:Display_doPut5)
                  000070fe    00000026     drivers_cc26xxware.aem3 : List.oem3 (.text:List_put)
                  00007124    00000024                             : PINCC26XX.oem3 (.text:PINCC26XX_getPinCount)
                  00007148    00000024                             : PowerCC26XX_calibrateRCOSC.oem3 (.text:getTdcSemaphore)
                  0000716c    00000024     labra_pem3.oem3 (.text:ti_sysbios_BIOS_registerRTSLock__I)
                  00007190    00000024     labra_pem3.oem3 (.text:ti_sysbios_BIOS_removeRTSLock__I)
                  000071b4    00000024     rom_sysbios.aem3 : rom_sysbios.obj (.text:xdc_runtime_System_vprintf__E)
                  000071d8    00000022     labra_pem3.oem3 (.text:xdc_runtime_SysMin_output__I)
                  000071fa    00000002     --HOLE-- [fill = 0]
                  000071fc    00000020     driverlib.lib : setup.obj (.text:NOROM_SetupGetTrimForXoscHfCtl)
                  0000721c    00000020     drivers_cc26xxware.aem3 : PowerCC26XX.oem3 (.text:Power_unregisterNotify)
                  0000723c    00000020     rtsv7M3_T_le_eabi.lib : u_tofd_t2.obj (.text)
                  0000725c    00000020     labra_pem3.oem3 (.text:ti_sysbios_BIOS_rtsLock__I)
                  0000727c    00000020     rom_sysbios.aem3 : rom_sysbios.obj (.text:ti_sysbios_knl_Clock_stop__E)
                  0000729c    00000020                      : rom_sysbios.obj (.text:xdc_runtime_Registry_findById__E)
                  000072bc    00000020                      : rom_sysbios.obj (.text:xdc_runtime_SysMin_Module_startup__E)
                  000072dc    0000001e     drivers_cc26xxware.aem3 : PINCC26XX.oem3 (.text:PIN_close)
                  000072fa    0000001e                             : PowerCC26XX.oem3 (.text:Power_getTransitionLatency)
                  00007318    0000001c     driverlib.lib : osc.obj (.text:NOROM_OSCClockSourceGet)
                  00007334    0000001c                   : setup.obj (.text:NOROM_SetupGetTrimForAmpcompTh2)
                  00007350    0000001c                   : setup.obj (.text:NOROM_SetupGetTrimForRcOscLfRtuneCtuneTrim)
                  0000736c    0000001c     drivers_cc26xxware.aem3 : PINCC26XX.oem3 (.text:PINCC26XX_setIoCfgMux)
                  00007388    0000001c                             : PINCC26XX.oem3 (.text:PIN_hwi)
                  000073a4    0000001c     rom_sysbios.aem3 : rom_sysbios.obj (.text:ti_sysbios_family_arm_cc26xx_Timer_dynamicStub__E)
                  000073c0    0000001c                      : rom_sysbios.obj (.text:xdc_runtime_SysMin_exit__E)
                  000073dc    0000001a     drivers_cc26xxware.aem3 : List.oem3 (.text:List_remove)
                  000073f6    0000001a     rtsv7M3_T_le_eabi.lib : memccpy.obj (.text)
                  00007410    0000001a     rom_sysbios.aem3 : rom_sysbios_config.obj (.text:xdc_runtime_System_printf__E)
                  0000742a    0000001a                      : rom_sysbios_config.obj (.text:xdc_runtime_System_snprintf__E)
                  00007444    00000018     display.aem3 : DisplayUart.oem3 (.text:DisplayUart_close)
                  0000745c    00000018     driverlib.lib : aon_rtc.obj (.text:NOROM_AONRTCCurrentCompareValueGet)
                  00007474    00000018                   : chipinfo.obj (.text:NOROM_ChipInfo_GetPackageType)
                  0000748c    00000018                   : osc.obj (.text:NOROM_OSCHF_TurnOnXosc)
                  000074a4    00000018                   : setup.obj (.text:NOROM_SetupGetTrimForAdcShModeEn)
                  000074bc    00000018                   : setup.obj (.text:NOROM_SetupGetTrimForAdcShVbufEn)
                  000074d4    00000018                   : setup.obj (.text:NOROM_SetupGetTrimForAmpcompTh1)
                  000074ec    00000018                   : setup.obj (.text:NOROM_SetupGetTrimForDblrLoopFilterResetVoltage)
                  00007504    00000018                   : setup.obj (.text:NOROM_SetupGetTrimForRcOscLfIBiasTrim)
                  0000751c    00000018                   : setup.obj (.text:NOROM_SetupGetTrimForXoscLfRegulatorAndCmirrwrRatio)
                  00007534    00000018     drivers_cc26xxware.aem3 : PowerCC26XX.oem3 (.text:Power_idleFunc)
                  0000754c    00000018                             : UARTCC26XX.oem3 (.text:UARTCC26XX_init)
                  00007564    00000018                             : UART.oem3 (.text:UART_Params_init)
                  0000757c    00000018                             : PowerCC26XX.oem3 (.text:configureRFCoreClocks)
                  00007594    00000018     rtsv7M3_T_le_eabi.lib : args_main.obj (.text)
                  000075ac    00000018                           : ll_mul_t2.obj (.text)
                  000075c4    00000018     labra_pem3.oem3 (.text:ti_sysbios_BIOS_rtsUnlock__I)
                  000075dc    00000018     rom_sysbios.aem3 : rom_sysbios.obj (.text:ti_sysbios_knl_Swi_or__E)
                  000075f4    00000018     labra_pem3.oem3 (.text:ti_sysbios_rom_cortexm_cc26xx_CC26xx_checkRevision__E)
                  0000760c    00000016     rtsv7M3_T_le_eabi.lib : strchr.obj (.text)
                  00007622    00000016                           : strcpy.obj (.text)
                  00007638    00000016     labra_pem3.oem3 (.text:ti_sysbios_BIOS_exitFunc__I)
                  0000764e    00000016     main.obj (.text:ti_sysbios_knl_Task_Params_init)
                  00007664    00000014     driverlib.lib : aon_rtc.obj (.text:NOROM_AONRTCCurrent64BitValueGet)
                  00007678    00000014                   : chipinfo.obj (.text:NOROM_ThisCodeIsBuiltForCC26xxHwRev22AndLater_HaltIfViolated)
                  0000768c    00000014     drivers_cc26xxware.aem3 : PINCC26XX.oem3 (.text:PINCC26XX_getOutputValue)
                  000076a0    00000014     rtsv7M3_T_le_eabi.lib : _lock.obj (.text)
                  000076b4    00000014                           : strlen.obj (.text)
                  000076c8    00000014     labra_pem3.oem3 (.text:ti_sysbios_knl_Clock_doTick__I)
                  000076dc    00000012     labra_pem3.oem3 (.text:xdc_runtime_Startup_exec__I)
                  000076ee    00000002     --HOLE-- [fill = 0]
                  000076f0    00000010     drivers_cc26xxware.aem3 : I2C.oem3 (.text:I2C_Params_init)
                  00007700    00000010     driverlib.lib : setup.obj (.text:NOROM_SetupGetTrimForXoscHfFastStart)
                  00007710    00000010                   : setup.obj (.text:NOROM_SetupGetTrimForXoscHfIbiastherm)
                  00007720    00000010     drivers_cc26xxware.aem3 : I2CCC26XX.oem3 (.text:i2cPostNotify)
                  00007730    00000010                             : UARTCC26XX.oem3 (.text:uartPostNotify)
                  00007740    00000010     rom_sysbios.aem3 : rom_sysbios.obj (.text:xdc_runtime_SysMin_ready__E)
                  00007750    00000010                      : rom_sysbios.obj (.text:xdc_runtime_System_vsnprintf__E)
                  00007760    0000000e     driverlib.lib : setup.obj (.text:NOROM_SetupSignExtendVddrTrimValue)
                  0000776e    0000000e                   : vims.obj (.text:NOROM_VIMSModeGet)
                  0000777c    0000000e     rtsv7M3_T_le_eabi.lib : copy_decompress_none.obj (.text:decompress:none)
                  0000778a    0000000e     rom_sysbios.aem3 : rom_sysbios.obj (.text:ti_sysbios_family_arm_cc26xx_TimestampProvider_get32__E)
                  00007798    0000000c     display.aem3 : Display.oem3 (.text:Display_doClear)
                  000077a4    0000000c     driverlib.lib : cpu.obj (.text:NOROM_CPUcpsid)
                  000077b0    0000000c                   : cpu.obj (.text:NOROM_CPUcpsie)
                  000077bc    0000000c     drivers_cc26xxware.aem3 : PINCC26XX.oem3 (.text:PIN_registerIntCb)
                  000077c8    0000000c                             : PowerCC26XX.oem3 (.text:Power_getConstraintMask)
                  000077d4    0000000c                             : PowerCC26XX.oem3 (.text:Power_getDependencyCount)
                  000077e0    0000000c     rom_sysbios.aem3 : rom_sysbios.obj (.text:ti_sysbios_knl_Swi_getTrigger__E)
                  000077ec    0000000c     labra_pem3.oem3 (.text:xdc_runtime_Startup_reset__I)
                  000077f8    0000000c     rom_sysbios.aem3 : rom_sysbios.obj (.text:xdc_runtime_Startup_rtsDone__E)
                  00007804    0000000a     drivers_cc26xxware.aem3 : I2CCC26XX.oem3 (.text:I2CCC26XX_init)
                  0000780e    0000000a                             : I2C.oem3 (.text:I2C_transfer)
                  00007818    0000000a                             : List.oem3 (.text:List_empty)
                  00007822    0000000a                             : UART.oem3 (.text:UART_close)
                  0000782c    0000000a                             : UART.oem3 (.text:UART_write)
                  00007836    00000008                             : I2CCC26XX.oem3 (.text:I2CCC26XX_blockingCallback)
                  0000783e    00000008                             : UARTCC26XX.oem3 (.text:readSemCallback)
                  00007846    00000008     rtsv7M3_T_le_eabi.lib : s_copysign.obj (.text)
                  0000784e    00000008     drivers_cc26xxware.aem3 : UARTCC26XX.oem3 (.text:writeSemCallback)
                  00007856    00000008     labra_pem3.oem3 (.text:xdc_runtime_Text_visitRope__I)
                  0000785e    00000006     display.aem3 : DisplayUart.oem3 (.text:DisplayUart_control)
                  00007864    00000006                  : DisplayUart.oem3 (.text:DisplayUart_getType)
                  0000786a    00000006                  : Display.oem3 (.text:Display_doParamsInit)
                  00007870    00000006     drivers_cc26xxware.aem3 : I2CCC26XX.oem3 (.text:I2CCC26XX_control)
                  00007876    00000006     driverlib.lib : cpu.obj (.text:NOROM_CPUdelay)
                  0000787c    00000006     drivers_cc26xxware.aem3 : UARTCC26XX.oem3 (.text:UARTCC26XX_readPolling)
                  00007882    00000006                             : UARTCC26XX.oem3 (.text:UARTCC26XX_writePolling)
                  00007888    00000006     rtsv7M3_T_le_eabi.lib : copy_decompress_rle.obj (.text:decompress:rle24)
                  0000788e    00000004     tirtosport.aem3 : HwiP_tirtos.oem3 (.text:HwiP_disable)
                  00007892    00000004     drivers_cc26xxware.aem3 : List.oem3 (.text:List_head)
                  00007896    00000004                             : List.oem3 (.text:List_next)
                  0000789a    00000004                             : PowerCC26XX.oem3 (.text:nopResourceHandler)
                  0000789e    00000004     rom_sysbios.aem3 : rom_sysbios.obj (.text:ti_sysbios_family_arm_cc26xx_Timer_getCount64__E)
                  000078a2    00000004                      : rom_sysbios.obj (.text:xdc_runtime_System_printf_va__F)
                  000078a6    00000004                      : rom_sysbios.obj (.text:xdc_runtime_System_snprintf_va__F)
                  000078aa    00000002     --HOLE-- [fill = 0]
                  000078ac    00000008     (.tramp.xdc_runtime_Startup_startMods__I.1)
                  000078b4    00000008     (.tramp.ti_sysbios_knl_Clock_logTick__E.1)
                  000078bc    00000008     (.tramp.ti_sysbios_knl_Task_Params__init__S.1)
                  000078c4    00000008     (.tramp.ti_sysbios_BIOS_RtsGateProxy_leave__E.1)
                  000078cc    00000008     (.tramp.ti_sysbios_BIOS_RtsGateProxy_enter__E.1)
                  000078d4    00000008     (.tramp.ti_sysbios_knl_Task_startup__E.1)
                  000078dc    00000008     (.tramp.ti_sysbios_knl_Swi_startup__E.1)
                  000078e4    00000008     (.tramp.ti_sysbios_hal_Hwi_startup__E.1)
                  000078ec    00000008     (.tramp.ti_sysbios_family_arm_cc26xx_Timer_startup__E.1)
                  000078f4    00000008     (.tramp.xdc_runtime_System_atexit__E.1)
                  000078fc    00000008     (.tramp.ti_sysbios_BIOS_setThreadType__E.1)
                  00007904    00000008     (.tramp.xdc_runtime_Gate_leaveSystem__E.1)
                  0000790c    00000008     (.tramp.xdc_runtime_Gate_enterSystem__E.1)
                  00007914    00000008     (.tramp.xdc_runtime_System_exit__E.1)
                  0000791c    00000008     (.tramp.ti_sysbios_knl_Clock_destruct.1)
                  00007924    00000008     (.tramp.ti_sysbios_knl_Semaphore_destruct.1)
                  0000792c    00000008     (.tramp.ti_sysbios_knl_Swi_destruct.1)
                  00007934    00000008     (.tramp.ti_sysbios_family_arm_m3_Hwi_destruct.1)
                  0000793c    00000008     (.tramp.ti_sysbios_knl_Clock_scheduleNextTick__E.1)
                  00007944    00000008     (.tramp.ti_sysbios_knl_Clock_walkQueueDynamic__E.1)
                  0000794c    00000008     (.tramp.ti_sysbios_knl_Clock_TimerProxy_getCurrentTick__E.1)
                  00007954    00000008     (.tramp.ti_sysbios_knl_Semaphore_post__E.1)
                  0000795c    00000008     (.tramp.ti_sysbios_family_arm_m3_Hwi_enableInterrupt__E.1)
                  00007964    00000008     (.tramp.ti_sysbios_family_arm_m3_Hwi_disableInterrupt__E.1)
                  0000796c    00000008     (.tramp.ti_sysbios_BIOS_getCpuFreq__E.1)
                  00007974    00000008     (.tramp.ti_sysbios_knl_Swi_post__E.1)
                  0000797c    00000008     (.tramp.ti_sysbios_knl_Semaphore_pend__E.1)
                  00007984    00000008     (.tramp.ti_sysbios_knl_Clock_setTimeout__E.1)
                  0000798c    00000008     (.tramp.ti_sysbios_BIOS_start__E.1)
                  00007994    00000008     (.tramp.ti_sysbios_knl_Task_create.1)
                  0000799c    00000008     (.tramp.ti_sysbios_knl_Clock_start__E.1)
                  000079a4    00000008     (.tramp.xdc_runtime_System_abortSpin__E.1)
                  000079ac    00000008     (.tramp.ti_sysbios_knl_Clock_construct.1)
                  000079b4    00000008     (.tramp.ti_sysbios_knl_Clock_Params__init__S.1)
                  000079bc    00000008     (.tramp.ti_sysbios_family_arm_m3_Hwi_restoreFxn__E.1)
                  000079c4    00000008     (.tramp.ti_sysbios_family_arm_m3_Hwi_disableFxn__E.1)
                  000079cc    00000008     (.tramp.ti_sysbios_knl_Swi_construct.1)
                  000079d4    00000008     (.tramp.ti_sysbios_knl_Swi_Params__init__S.1)
                  000079dc    00000008     (.tramp.ti_sysbios_family_arm_m3_Hwi_construct.1)
                  000079e4    00000008     (.tramp.ti_sysbios_family_arm_m3_Hwi_Params__init__S.1)
                  000079ec    00000008     (.tramp.ti_sysbios_knl_Semaphore_construct.1)
                  000079f4    00000008     (.tramp.ti_sysbios_knl_Semaphore_Params__init__S.1)
                  000079fc    00000008     (.tramp.ti_sysbios_knl_Task_sleep__E.1)
                  00007a04    00000008     (.tramp.xdc_runtime_System_abort__E.1)
                  00007a0c    00000008     (.tramp.ti_sysbios_knl_Task_restore__E.1)
                  00007a14    00000008     (.tramp.ti_sysbios_knl_Swi_restore__E.1)
                  00007a1c    00000008     (.tramp.ti_sysbios_knl_Swi_disable__E.1)
                  00007a24    00000008     (.tramp.ti_sysbios_knl_Task_disable__E.1)

.const     0    00007a30    00000415     
                  00007a30    00000101     rtsv7M3_T_le_eabi.lib : ctype.obj (.const:.string:_ctypes_)
                  00007b31    00000001     display.aem3 : Display.oem3 (.const)
                  00007b32    00000002     labra_pem3.oem3 (.const:xdc_runtime_SysMin_flushAtExit__C)
                  00007b34    00000068     CC2650STK.obj (.const:BoardGpioInitTable)
                  00007b9c    0000004c     drivers_cc26xxware.aem3 : PowerCC26XX.oem3 (.const:resourceDB)
                  00007be8    00000048     labra_pem3.oem3 (.const:.string)
                  00007c30    00000040     drivers_cc26xxware.aem3 : UARTCC26XX.oem3 (.const)
                  00007c70    00000030     rtsv7M3_T_le_eabi.lib : e_pow.obj (.const:$O1$$)
                  00007ca0    00000028     drivers_cc26xxware.aem3 : UARTCC26XX.oem3 (.const:UARTCC26XX_fxnTable)
                  00007cc8    00000028     labra_pem3.oem3 (.const:xdc_runtime_Startup_sfxnTab__A)
                  00007cf0    00000024     drivers_cc26xxware.aem3 : UART.oem3 (.const:UART_defaultParams)
                  00007d14    00000020                             : I2CCC26XX.oem3 (.const)
                  00007d34    0000001c     display.aem3 : DisplayUart.oem3 (.const)
                  00007d50    00000018     CC2650STK.obj (.const:Display_config)
                  00007d68    00000018     CC2650STK.obj (.const:I2C_config)
                  00007d80    00000018     CC2650STK.obj (.const:UART_config)
                  00007d98    00000018     CC2650STK.obj (.const:i2cCC26xxHWAttrs)
                  00007db0    00000018     CC2650STK.obj (.const:uartCC26XXHWAttrs)
                  00007dc8    00000014     CC2650STK.obj (.const:displayUartHWAttrs)
                  00007ddc    00000014     labra_pem3.oem3 (.const:xdc_runtime_Startup_sfxnRts__A)
                  00007df0    00000010     CC2650STK.obj (.const:PowerCC26XX_config)
                  00007e00    00000010     drivers_cc26xxware.aem3 : I2C.oem3 (.const)
                  00007e10    0000000c     labra_pem3.oem3 (.const:xdc_runtime_Startup_firstFxns__A)
                  00007e1c    00000008     CC2650STK.obj (.const:PINCC26XX_hwAttrs)
                  00007e24    00000004     labra_pem3.oem3 (.const:ti_sysbios_knl_Clock_tickPeriod__C)
                  00007e28    00000004     labra_pem3.oem3 (.const:ti_sysbios_knl_Clock_triggerClock__C)
                  00007e2c    00000004     labra_pem3.oem3 (.const:ti_sysbios_knl_Idle_funcList__A)
                  00007e30    00000004     labra_pem3.oem3 (.const:xdc_runtime_SysMin_bufSize__C)
                  00007e34    00000004     labra_pem3.oem3 (.const:xdc_runtime_SysMin_outputFunc__C)
                  00007e38    00000004     labra_pem3.oem3 (.const:xdc_runtime_System_extendFxn__C)
                  00007e3c    00000004     labra_pem3.oem3 (.const:xdc_runtime_Text_visitRopeFxn__C)
                  00007e40    00000002     labra_pem3.oem3 (.const:xdc_runtime_Text_registryModsLastId__C)
                  00007e42    00000002     labra_pem3.oem3 (.const:xdc_runtime_Text_unnamedModsLastId__C)
                  00007e44    00000001     labra_pem3.oem3 (.const:xdc_runtime_Text_charTab__A)

.cinit     0    00007e48    0000036c     
                  00007e48    000001c9     (.cinit..data.load) [load image, compression = rle]
                  00008011    00000007     --HOLE-- [fill = 0]
                  00008018    0000002c     (.cinit..data:ti_sysbios_family_arm_m3_Hwi_Module__state__V.load) [load image, compression = rle]
                  00008044    00000004     --HOLE-- [fill = 0]
                  00008048    0000002c     (.cinit..data:ti_sysbios_knl_Task_Module__state__V.load) [load image, compression = rle]
                  00008074    00000004     --HOLE-- [fill = 0]
                  00008078    00000021     (.cinit..data:ti_sysbios_knl_Clock_Module__state__V.load) [load image, compression = rle]
                  00008099    00000007     --HOLE-- [fill = 0]
                  000080a0    0000001f     (.cinit..data:ti_sysbios_BIOS_Module__state__V.load) [load image, compression = rle]
                  000080bf    00000001     --HOLE-- [fill = 0]
                  000080c0    00000011     (.cinit..data:ti_sysbios_knl_Swi_Module__state__V.load) [load image, compression = rle]
                  000080d1    00000007     --HOLE-- [fill = 0]
                  000080d8    0000000d     (.cinit..data:ti_sysbios_family_arm_cc26xx_Timer_Module__state__V.load) [load image, compression = rle]
                  000080e5    00000003     --HOLE-- [fill = 0]
                  000080e8    0000000d     (.cinit..data:xdc_runtime_System_Module__state__V.load) [load image, compression = rle]
                  000080f5    00000003     --HOLE-- [fill = 0]
                  000080f8    0000000b     (.cinit..bss.load) [load image, compression = rle]
                  00008103    00000005     --HOLE-- [fill = 0]
                  00008108    0000000a     (.cinit..data:xdc_runtime_Memory_Module__state__V.load) [load image, compression = rle]
                  00008112    00000006     --HOLE-- [fill = 0]
                  00008118    00000009     (.cinit..data:ti_sysbios_family_arm_cc26xx_TimestampProvider_Module__state__V.load) [load image, compression = rle]
                  00008121    00000007     --HOLE-- [fill = 0]
                  00008128    00000009     (.cinit..data:xdc_runtime_Startup_Module__state__V.load) [load image, compression = rle]
                  00008131    00000007     --HOLE-- [fill = 0]
                  00008138    00000009     (.cinit..vecs.load) [load image, compression = rle]
                  00008141    00000003     --HOLE-- [fill = 0]
                  00008144    00000008     (__TI_handler_table)
                  0000814c    00000068     (__TI_cinit_table)

.init_array 
*          0    00000000    00000000     UNINITIALIZED

.ccfg      0    0001ffa8    00000058     
                  0001ffa8    00000058     ccfg.obj (.ccfg:retain)

.resetVecs 
*          0    00000000    0000003c     
                  00000000    0000003c     labra_pem3.oem3 (.resetVecs)

.binit     0    00000000    00000000     

.const:ti_sysbios_knl_Task_Object__PARAMS__C 
*          0    00000100    0000003c     
                  00000100    0000003c     labra_pem3.oem3 (.const:ti_sysbios_knl_Task_Object__PARAMS__C)

.const:ti_sysbios_knl_Mailbox_Object__PARAMS__C 
*          0    0000013c    00000034     
                  0000013c    00000034     labra_pem3.oem3 (.const:ti_sysbios_knl_Mailbox_Object__PARAMS__C)

.const:ti_sysbios_family_arm_m3_Hwi_Object__PARAMS__C 
*          0    00000170    00000030     
                  00000170    00000030     labra_pem3.oem3 (.const:ti_sysbios_family_arm_m3_Hwi_Object__PARAMS__C)

.const:ti_sysbios_hal_Hwi_Object__PARAMS__C 
*          0    000001a0    0000002c     
                  000001a0    0000002c     labra_pem3.oem3 (.const:ti_sysbios_hal_Hwi_Object__PARAMS__C)

.const:ti_sysbios_heaps_HeapMem_Module__FXNS__C 
*          0    000001cc    00000028     
                  000001cc    00000028     labra_pem3.oem3 (.const:ti_sysbios_heaps_HeapMem_Module__FXNS__C)

.const:ti_sysbios_knl_Swi_Object__PARAMS__C 
*          0    000001f4    00000028     
                  000001f4    00000028     labra_pem3.oem3 (.const:ti_sysbios_knl_Swi_Object__PARAMS__C)

.const:ti_sysbios_gates_GateHwi_Module__FXNS__C 
*          0    0000021c    00000024     
                  0000021c    00000024     labra_pem3.oem3 (.const:ti_sysbios_gates_GateHwi_Module__FXNS__C)

.const:ti_sysbios_gates_GateMutex_Module__FXNS__C 
*          0    00000240    00000024     
                  00000240    00000024     labra_pem3.oem3 (.const:ti_sysbios_gates_GateMutex_Module__FXNS__C)

.const:ti_sysbios_heaps_HeapMem_Object__PARAMS__C 
*          0    00000264    00000024     
                  00000264    00000024     labra_pem3.oem3 (.const:ti_sysbios_heaps_HeapMem_Object__PARAMS__C)

.const:ti_sysbios_knl_Clock_Object__PARAMS__C 
*          0    00000288    00000024     
                  00000288    00000024     labra_pem3.oem3 (.const:ti_sysbios_knl_Clock_Object__PARAMS__C)

.const:ti_sysbios_knl_Semaphore_Object__PARAMS__C 
*          0    000002ac    00000024     
                  000002ac    00000024     labra_pem3.oem3 (.const:ti_sysbios_knl_Semaphore_Object__PARAMS__C)

.const:ti_sysbios_family_arm_m3_Hwi_Object__DESC__C 
*          0    000002d0    00000020     
                  000002d0    00000020     labra_pem3.oem3 (.const:ti_sysbios_family_arm_m3_Hwi_Object__DESC__C)

.const:ti_sysbios_gates_GateHwi_Object__DESC__C 
*          0    000002f0    00000020     
                  000002f0    00000020     labra_pem3.oem3 (.const:ti_sysbios_gates_GateHwi_Object__DESC__C)

.const:ti_sysbios_gates_GateMutex_Object__DESC__C 
*          0    00000310    00000020     
                  00000310    00000020     labra_pem3.oem3 (.const:ti_sysbios_gates_GateMutex_Object__DESC__C)

.const:ti_sysbios_hal_Hwi_Object__DESC__C 
*          0    00000330    00000020     
                  00000330    00000020     labra_pem3.oem3 (.const:ti_sysbios_hal_Hwi_Object__DESC__C)

.const:ti_sysbios_heaps_HeapMem_Object__DESC__C 
*          0    00000350    00000020     
                  00000350    00000020     labra_pem3.oem3 (.const:ti_sysbios_heaps_HeapMem_Object__DESC__C)

.const:ti_sysbios_knl_Clock_Object__DESC__C 
*          0    00000370    00000020     
                  00000370    00000020     labra_pem3.oem3 (.const:ti_sysbios_knl_Clock_Object__DESC__C)

.const:ti_sysbios_knl_Mailbox_Object__DESC__C 
*          0    00000390    00000020     
                  00000390    00000020     labra_pem3.oem3 (.const:ti_sysbios_knl_Mailbox_Object__DESC__C)

.const:ti_sysbios_knl_Queue_Object__DESC__C 
*          0    000003b0    00000020     
                  000003b0    00000020     labra_pem3.oem3 (.const:ti_sysbios_knl_Queue_Object__DESC__C)

.const:ti_sysbios_knl_Semaphore_Object__DESC__C 
*          0    000003d0    00000020     
                  000003d0    00000020     labra_pem3.oem3 (.const:ti_sysbios_knl_Semaphore_Object__DESC__C)

.const:ti_sysbios_knl_Swi_Object__DESC__C 
*          0    000003f0    00000020     
                  000003f0    00000020     labra_pem3.oem3 (.const:ti_sysbios_knl_Swi_Object__DESC__C)

.const:ti_sysbios_knl_Task_Object__DESC__C 
*          0    00000410    00000020     
                  00000410    00000020     labra_pem3.oem3 (.const:ti_sysbios_knl_Task_Object__DESC__C)

.const:ti_sysbios_gates_GateHwi_Object__PARAMS__C 
*          0    00000430    00000018     
                  00000430    00000018     labra_pem3.oem3 (.const:ti_sysbios_gates_GateHwi_Object__PARAMS__C)

.const:ti_sysbios_gates_GateMutex_Object__PARAMS__C 
*          0    00000448    00000018     
                  00000448    00000018     labra_pem3.oem3 (.const:ti_sysbios_gates_GateMutex_Object__PARAMS__C)

.const:ti_sysbios_knl_Queue_Object__PARAMS__C 
*          0    00000460    00000018     
                  00000460    00000018     labra_pem3.oem3 (.const:ti_sysbios_knl_Queue_Object__PARAMS__C)

.const:ti_sysbios_knl_Idle_funcList__C 
*          0    00000478    00000008     
                  00000478    00000008     labra_pem3.oem3 (.const:ti_sysbios_knl_Idle_funcList__C)

.const:ti_sysbios_family_arm_cc26xx_Timer_startupNeeded__C 
*          0    00000484    00000004     
                  00000484    00000004     labra_pem3.oem3 (.const:ti_sysbios_family_arm_cc26xx_Timer_startupNeeded__C)

.const:ti_sysbios_family_arm_m3_Hwi_E_alreadyDefined__C 
*          0    00000488    00000004     
                  00000488    00000004     labra_pem3.oem3 (.const:ti_sysbios_family_arm_m3_Hwi_E_alreadyDefined__C)

.const:ti_sysbios_family_arm_m3_Hwi_E_hwiLimitExceeded__C 
*          0    0000048c    00000004     
                  0000048c    00000004     labra_pem3.oem3 (.const:ti_sysbios_family_arm_m3_Hwi_E_hwiLimitExceeded__C)

.const:ti_sysbios_family_arm_m3_Hwi_NUM_INTERRUPTS__C 
*          0    00000490    00000004     
                  00000490    00000004     labra_pem3.oem3 (.const:ti_sysbios_family_arm_m3_Hwi_NUM_INTERRUPTS__C)

.const:ti_sysbios_family_arm_m3_Hwi_Object__count__C 
*          0    00000494    00000004     
                  00000494    00000004     labra_pem3.oem3 (.const:ti_sysbios_family_arm_m3_Hwi_Object__count__C)

.const:ti_sysbios_family_arm_m3_Hwi_Object__table__C 
*          0    00000498    00000004     
                  00000498    00000004     labra_pem3.oem3 (.const:ti_sysbios_family_arm_m3_Hwi_Object__table__C)

.const:ti_sysbios_family_arm_m3_Hwi_ccr__C 
*          0    0000049c    00000004     
                  0000049c    00000004     labra_pem3.oem3 (.const:ti_sysbios_family_arm_m3_Hwi_ccr__C)

.const:ti_sysbios_family_arm_m3_Hwi_excHandlerFunc__C 
*          0    000004a0    00000004     
                  000004a0    00000004     labra_pem3.oem3 (.const:ti_sysbios_family_arm_m3_Hwi_excHandlerFunc__C)

.const:ti_sysbios_family_arm_m3_Hwi_nullIsrFunc__C 
*          0    000004a4    00000004     
                  000004a4    00000004     labra_pem3.oem3 (.const:ti_sysbios_family_arm_m3_Hwi_nullIsrFunc__C)

.const:ti_sysbios_family_arm_m3_Hwi_numSparseInterrupts__C 
*          0    000004a8    00000004     
                  000004a8    00000004     labra_pem3.oem3 (.const:ti_sysbios_family_arm_m3_Hwi_numSparseInterrupts__C)

.const:ti_sysbios_family_arm_m3_Hwi_priGroup__C 
*          0    000004ac    00000004     
                  000004ac    00000004     labra_pem3.oem3 (.const:ti_sysbios_family_arm_m3_Hwi_priGroup__C)

.const:ti_sysbios_family_arm_m3_TaskSupport_stackAlignment__C 
*          0    000004b0    00000004     
                  000004b0    00000004     labra_pem3.oem3 (.const:ti_sysbios_family_arm_m3_TaskSupport_stackAlignment__C)

.const:ti_sysbios_heaps_HeapMem_E_memory__C 
*          0    000004b4    00000004     
                  000004b4    00000004     labra_pem3.oem3 (.const:ti_sysbios_heaps_HeapMem_E_memory__C)

.const:ti_sysbios_heaps_HeapMem_Module__gateObj__C 
*          0    000004b8    00000004     
                  000004b8    00000004     labra_pem3.oem3 (.const:ti_sysbios_heaps_HeapMem_Module__gateObj__C)

.const:ti_sysbios_heaps_HeapMem_Object__count__C 
*          0    000004bc    00000004     
                  000004bc    00000004     labra_pem3.oem3 (.const:ti_sysbios_heaps_HeapMem_Object__count__C)

.const:ti_sysbios_heaps_HeapMem_Object__table__C 
*          0    000004c0    00000004     
                  000004c0    00000004     labra_pem3.oem3 (.const:ti_sysbios_heaps_HeapMem_Object__table__C)

.const:ti_sysbios_heaps_HeapMem_reqAlign__C 
*          0    000004c4    00000004     
                  000004c4    00000004     labra_pem3.oem3 (.const:ti_sysbios_heaps_HeapMem_reqAlign__C)

.const:ti_sysbios_knl_Clock_serviceMargin__C 
*          0    000004c8    00000004     
                  000004c8    00000004     labra_pem3.oem3 (.const:ti_sysbios_knl_Clock_serviceMargin__C)

.const:ti_sysbios_knl_Mailbox_Object__count__C 
*          0    000004cc    00000004     
                  000004cc    00000004     labra_pem3.oem3 (.const:ti_sysbios_knl_Mailbox_Object__count__C)

.const:ti_sysbios_knl_Mailbox_Object__table__C 
*          0    000004d0    00000004     
                  000004d0    00000004     labra_pem3.oem3 (.const:ti_sysbios_knl_Mailbox_Object__table__C)

.const:ti_sysbios_knl_Queue_Object__count__C 
*          0    000004d4    00000004     
                  000004d4    00000004     labra_pem3.oem3 (.const:ti_sysbios_knl_Queue_Object__count__C)

.const:ti_sysbios_knl_Queue_Object__table__C 
*          0    000004d8    00000004     
                  000004d8    00000004     labra_pem3.oem3 (.const:ti_sysbios_knl_Queue_Object__table__C)

.const:ti_sysbios_knl_Swi_Object__count__C 
*          0    000004dc    00000004     
                  000004dc    00000004     labra_pem3.oem3 (.const:ti_sysbios_knl_Swi_Object__count__C)

.const:ti_sysbios_knl_Swi_Object__table__C 
*          0    000004e0    00000004     
                  000004e0    00000004     labra_pem3.oem3 (.const:ti_sysbios_knl_Swi_Object__table__C)

.const:ti_sysbios_knl_Swi_numPriorities__C 
*          0    000004e4    00000004     
                  000004e4    00000004     labra_pem3.oem3 (.const:ti_sysbios_knl_Swi_numPriorities__C)

.const:ti_sysbios_knl_Task_Object__count__C 
*          0    000004e8    00000004     
                  000004e8    00000004     labra_pem3.oem3 (.const:ti_sysbios_knl_Task_Object__count__C)

.const:ti_sysbios_knl_Task_Object__table__C 
*          0    000004ec    00000004     
                  000004ec    00000004     labra_pem3.oem3 (.const:ti_sysbios_knl_Task_Object__table__C)

.const:ti_sysbios_knl_Task_allBlockedFunc__C 
*          0    000004f0    00000004     
                  000004f0    00000004     labra_pem3.oem3 (.const:ti_sysbios_knl_Task_allBlockedFunc__C)

.const:ti_sysbios_knl_Task_defaultStackHeap__C 
*          0    000004f4    00000004     
                  000004f4    00000004     labra_pem3.oem3 (.const:ti_sysbios_knl_Task_defaultStackHeap__C)

.const:ti_sysbios_knl_Task_defaultStackSize__C 
*          0    000004f8    00000004     
                  000004f8    00000004     labra_pem3.oem3 (.const:ti_sysbios_knl_Task_defaultStackSize__C)

.const:ti_sysbios_knl_Task_numConstructedTasks__C 
*          0    000004fc    00000004     
                  000004fc    00000004     labra_pem3.oem3 (.const:ti_sysbios_knl_Task_numConstructedTasks__C)

.const:ti_sysbios_family_arm_cc26xx_Timer_Module__id__C 
*          0    00000502    00000002     
                  00000502    00000002     labra_pem3.oem3 (.const:ti_sysbios_family_arm_cc26xx_Timer_Module__id__C)

.const:ti_sysbios_family_arm_cc26xx_TimestampProvider_useClockTimer__C 
*          0    00000504    00000002     
                  00000504    00000002     labra_pem3.oem3 (.const:ti_sysbios_family_arm_cc26xx_TimestampProvider_useClockTimer__C)

.const:ti_sysbios_family_arm_m3_Hwi_Module__id__C 
*          0    00000506    00000002     
                  00000506    00000002     labra_pem3.oem3 (.const:ti_sysbios_family_arm_m3_Hwi_Module__id__C)

.const:ti_sysbios_gates_GateHwi_Module__id__C 
*          0    00000508    00000002     
                  00000508    00000002     labra_pem3.oem3 (.const:ti_sysbios_gates_GateHwi_Module__id__C)

.const:ti_sysbios_gates_GateMutex_Module__id__C 
*          0    0000050a    00000002     
                  0000050a    00000002     labra_pem3.oem3 (.const:ti_sysbios_gates_GateMutex_Module__id__C)

.const:ti_sysbios_heaps_HeapMem_Module__id__C 
*          0    0000050c    00000002     
                  0000050c    00000002     labra_pem3.oem3 (.const:ti_sysbios_heaps_HeapMem_Module__id__C)

.const:ti_sysbios_knl_Task_initStackFlag__C 
*          0    0000050e    00000002     
                  0000050e    00000002     labra_pem3.oem3 (.const:ti_sysbios_knl_Task_initStackFlag__C)

.const:ti_sysbios_knl_Clock_tickMode__C 
*          0    00000510    00000001     
                  00000510    00000001     labra_pem3.oem3 (.const:ti_sysbios_knl_Clock_tickMode__C)

.const:xdc_runtime_Startup_firstFxns__C 
*          0    00000514    00000008     
                  00000514    00000008     labra_pem3.oem3 (.const:xdc_runtime_Startup_firstFxns__C)

.const:xdc_runtime_Startup_lastFxns__C 
*          0    0000051c    00000008     
                  0000051c    00000008     labra_pem3.oem3 (.const:xdc_runtime_Startup_lastFxns__C)

.const:xdc_runtime_Assert_E_assertFailed__C 
*          0    00000524    00000004     
                  00000524    00000004     labra_pem3.oem3 (.const:xdc_runtime_Assert_E_assertFailed__C)

.const:xdc_runtime_Error_E_memory__C 
*          0    00000528    00000004     
                  00000528    00000004     labra_pem3.oem3 (.const:xdc_runtime_Error_E_memory__C)

.const:xdc_runtime_Error_policyFxn__C 
*          0    0000052c    00000004     
                  0000052c    00000004     labra_pem3.oem3 (.const:xdc_runtime_Error_policyFxn__C)

.const:xdc_runtime_IGateProvider_Interface__BASE__C 
*          0    00000530    00000004     
                  00000530    00000004     labra_pem3.oem3 (.const:xdc_runtime_IGateProvider_Interface__BASE__C)

.const:xdc_runtime_IHeap_Interface__BASE__C 
*          0    00000534    00000004     
                  00000534    00000004     labra_pem3.oem3 (.const:xdc_runtime_IHeap_Interface__BASE__C)

.const:xdc_runtime_IModule_Interface__BASE__C 
*          0    00000538    00000004     
                  00000538    00000004     labra_pem3.oem3 (.const:xdc_runtime_IModule_Interface__BASE__C)

.const:xdc_runtime_Main_Module__diagsEnabled__C 
*          0    0000053c    00000004     
                  0000053c    00000004     labra_pem3.oem3 (.const:xdc_runtime_Main_Module__diagsEnabled__C)

.const:xdc_runtime_Main_Module__diagsIncluded__C 
*          0    00000540    00000004     
                  00000540    00000004     labra_pem3.oem3 (.const:xdc_runtime_Main_Module__diagsIncluded__C)

.const:xdc_runtime_Main_Module__diagsMask__C 
*          0    00000544    00000004     
                  00000544    00000004     labra_pem3.oem3 (.const:xdc_runtime_Main_Module__diagsMask__C)

.const:xdc_runtime_Memory_defaultHeapInstance__C 
*          0    00000548    00000004     
                  00000548    00000004     labra_pem3.oem3 (.const:xdc_runtime_Memory_defaultHeapInstance__C)

.const:xdc_runtime_Startup_execImpl__C 
*          0    0000054c    00000004     
                  0000054c    00000004     labra_pem3.oem3 (.const:xdc_runtime_Startup_execImpl__C)

.const:xdc_runtime_Startup_maxPasses__C 
*          0    00000550    00000004     
                  00000550    00000004     labra_pem3.oem3 (.const:xdc_runtime_Startup_maxPasses__C)

.const:xdc_runtime_Startup_sfxnRts__C 
*          0    00000554    00000004     
                  00000554    00000004     labra_pem3.oem3 (.const:xdc_runtime_Startup_sfxnRts__C)

.const:xdc_runtime_Startup_sfxnTab__C 
*          0    00000558    00000004     
                  00000558    00000004     labra_pem3.oem3 (.const:xdc_runtime_Startup_sfxnTab__C)

.const:xdc_runtime_Startup_startModsFxn__C 
*          0    0000055c    00000004     
                  0000055c    00000004     labra_pem3.oem3 (.const:xdc_runtime_Startup_startModsFxn__C)

.const:xdc_runtime_SysCallback_abortFxn__C 
*          0    00000560    00000004     
                  00000560    00000004     labra_pem3.oem3 (.const:xdc_runtime_SysCallback_abortFxn__C)

.const:xdc_runtime_SysCallback_exitFxn__C 
*          0    00000564    00000004     
                  00000564    00000004     labra_pem3.oem3 (.const:xdc_runtime_SysCallback_exitFxn__C)

.const:xdc_runtime_System_abortFxn__C 
*          0    00000568    00000004     
                  00000568    00000004     labra_pem3.oem3 (.const:xdc_runtime_System_abortFxn__C)

.const:xdc_runtime_System_exitFxn__C 
*          0    0000056c    00000004     
                  0000056c    00000004     labra_pem3.oem3 (.const:xdc_runtime_System_exitFxn__C)

.const:xdc_runtime_System_maxAtexitHandlers__C 
*          0    00000570    00000004     
                  00000570    00000004     labra_pem3.oem3 (.const:xdc_runtime_System_maxAtexitHandlers__C)

.const:xdc_runtime_Text_charTab__C 
*          0    00000574    00000004     
                  00000574    00000004     labra_pem3.oem3 (.const:xdc_runtime_Text_charTab__C)

.const:xdc_runtime_Text_nameEmpty__C 
*          0    00000578    00000004     
                  00000578    00000004     labra_pem3.oem3 (.const:xdc_runtime_Text_nameEmpty__C)

.const:xdc_runtime_Text_nameStatic__C 
*          0    0000057c    00000004     
                  0000057c    00000004     labra_pem3.oem3 (.const:xdc_runtime_Text_nameStatic__C)

.const:xdc_runtime_Text_nameUnknown__C 
*          0    00000580    00000004     
                  00000580    00000004     labra_pem3.oem3 (.const:xdc_runtime_Text_nameUnknown__C)

.const:xdc_runtime_Main_Module__id__C 
*          0    00000584    00000002     
                  00000584    00000002     labra_pem3.oem3 (.const:xdc_runtime_Main_Module__id__C)

.const:xdc_runtime_Memory_Module__id__C 
*          0    00000586    00000002     
                  00000586    00000002     labra_pem3.oem3 (.const:xdc_runtime_Memory_Module__id__C)

.const:xdc_runtime_Text_charCnt__C 
*          0    00000588    00000002     
                  00000588    00000002     labra_pem3.oem3 (.const:xdc_runtime_Text_charCnt__C)

.const:xdc_runtime_Text_isLoaded__C 
*          0    0000058a    00000002     
                  0000058a    00000002     labra_pem3.oem3 (.const:xdc_runtime_Text_isLoaded__C)

.const:xdc_runtime_Error_policy__C 
*          0    0000058c    00000001     
                  0000058c    00000001     labra_pem3.oem3 (.const:xdc_runtime_Error_policy__C)

.const:ti_sysbios_rom_ROM_AONRTCChannelEnable 
*          0    00000590    00000004     
                  00000590    00000004     labra_pem3.oem3 (.const:ti_sysbios_rom_ROM_AONRTCChannelEnable)

.const:ti_sysbios_rom_ROM_AONRTCCompareValueSet 
*          0    00000594    00000004     
                  00000594    00000004     labra_pem3.oem3 (.const:ti_sysbios_rom_ROM_AONRTCCompareValueSet)

.const:ti_sysbios_rom_ROM_AONRTCCurrentCompareValueGet 
*          0    00000598    00000004     
                  00000598    00000004     labra_pem3.oem3 (.const:ti_sysbios_rom_ROM_AONRTCCurrentCompareValueGet)

.const:ti_sysbios_rom_ROM_AONRTCEventClear 
*          0    0000059c    00000004     
                  0000059c    00000004     labra_pem3.oem3 (.const:ti_sysbios_rom_ROM_AONRTCEventClear)

.const:ti_sysbios_rom_ROM_ti_sysbios_family_arm_cc26xx_Timer_getCount64__E 
*          0    000005a0    00000004     
                  000005a0    00000004     labra_pem3.oem3 (.const:ti_sysbios_rom_ROM_ti_sysbios_family_arm_cc26xx_Timer_getCount64__E)

.const:ti_sysbios_rom_ROM_ti_sysbios_family_arm_cc26xx_Timer_getCurrentTick__E 
*          0    000005a4    00000004     
                  000005a4    00000004     labra_pem3.oem3 (.const:ti_sysbios_rom_ROM_ti_sysbios_family_arm_cc26xx_Timer_getCurrentTick__E)

.const:ti_sysbios_rom_ROM_ti_sysbios_family_arm_cc26xx_Timer_getMaxTicks__E 
*          0    000005a8    00000004     
                  000005a8    00000004     labra_pem3.oem3 (.const:ti_sysbios_rom_ROM_ti_sysbios_family_arm_cc26xx_Timer_getMaxTicks__E)

.const:ti_sysbios_rom_ROM_ti_sysbios_family_arm_cc26xx_Timer_initDevice__I 
*          0    000005ac    00000004     
                  000005ac    00000004     labra_pem3.oem3 (.const:ti_sysbios_rom_ROM_ti_sysbios_family_arm_cc26xx_Timer_initDevice__I)

.const:ti_sysbios_rom_ROM_ti_sysbios_family_arm_cc26xx_Timer_setNextTick__E 
*          0    000005b0    00000004     
                  000005b0    00000004     labra_pem3.oem3 (.const:ti_sysbios_rom_ROM_ti_sysbios_family_arm_cc26xx_Timer_setNextTick__E)

.const:ti_sysbios_rom_ROM_ti_sysbios_family_arm_cc26xx_Timer_setThreshold__I 
*          0    000005b4    00000004     
                  000005b4    00000004     labra_pem3.oem3 (.const:ti_sysbios_rom_ROM_ti_sysbios_family_arm_cc26xx_Timer_setThreshold__I)

.const:ti_sysbios_rom_ROM_ti_sysbios_family_arm_cc26xx_Timer_start__E 
*          0    000005b8    00000004     
                  000005b8    00000004     labra_pem3.oem3 (.const:ti_sysbios_rom_ROM_ti_sysbios_family_arm_cc26xx_Timer_start__E)

.const:ti_sysbios_rom_ROM_ti_sysbios_family_arm_cc26xx_TimestampProvider_get32__E 
*          0    000005bc    00000004     
                  000005bc    00000004     labra_pem3.oem3 (.const:ti_sysbios_rom_ROM_ti_sysbios_family_arm_cc26xx_TimestampProvider_get32__E)

.const:ti_sysbios_rom_ROM_xdc_runtime_Startup_getState__I 
*          0    000005c0    00000004     
                  000005c0    00000004     labra_pem3.oem3 (.const:ti_sysbios_rom_ROM_xdc_runtime_Startup_getState__I)

.const:ti_sysbios_rom_ROM_xdc_runtime_System_SupportProxy_abort__E 
*          0    000005c4    00000004     
                  000005c4    00000004     labra_pem3.oem3 (.const:ti_sysbios_rom_ROM_xdc_runtime_System_SupportProxy_abort__E)

.const:ti_sysbios_rom_ROM_xdc_runtime_System_SupportProxy_exit__E 
*          0    000005c8    00000004     
                  000005c8    00000004     labra_pem3.oem3 (.const:ti_sysbios_rom_ROM_xdc_runtime_System_SupportProxy_exit__E)

.const:ti_sysbios_gates_GateMutex_Instance_State_sem__O 
*          0    000005cc    00000004     
                  000005cc    00000004     labra_pem3.oem3 (.const:ti_sysbios_gates_GateMutex_Instance_State_sem__O)

.const:ti_sysbios_knl_Clock_Module_State_clockQ__O 
*          0    000005d0    00000004     
                  000005d0    00000004     labra_pem3.oem3 (.const:ti_sysbios_knl_Clock_Module_State_clockQ__O)

.const:ti_sysbios_knl_Mailbox_Instance_State_dataQue__O 
*          0    000005d4    00000004     
                  000005d4    00000004     labra_pem3.oem3 (.const:ti_sysbios_knl_Mailbox_Instance_State_dataQue__O)

.const:ti_sysbios_knl_Mailbox_Instance_State_dataSem__O 
*          0    000005d8    00000004     
                  000005d8    00000004     labra_pem3.oem3 (.const:ti_sysbios_knl_Mailbox_Instance_State_dataSem__O)

.const:ti_sysbios_knl_Mailbox_Instance_State_freeQue__O 
*          0    000005dc    00000004     
                  000005dc    00000004     labra_pem3.oem3 (.const:ti_sysbios_knl_Mailbox_Instance_State_freeQue__O)

.const:ti_sysbios_knl_Mailbox_Instance_State_freeSem__O 
*          0    000005e0    00000004     
                  000005e0    00000004     labra_pem3.oem3 (.const:ti_sysbios_knl_Mailbox_Instance_State_freeSem__O)

.const:ti_sysbios_knl_Semaphore_Instance_State_pendQ__O 
*          0    000005e4    00000004     
                  000005e4    00000004     labra_pem3.oem3 (.const:ti_sysbios_knl_Semaphore_Instance_State_pendQ__O)

.const:ti_sysbios_knl_Task_Module_State_inactiveQ__O 
*          0    000005e8    00000004     
                  000005e8    00000004     labra_pem3.oem3 (.const:ti_sysbios_knl_Task_Module_State_inactiveQ__O)

.vecs      0    20000000    000000c8     UNINITIALIZED
                  20000000    000000c8     labra_pem3.oem3 (.vecs)

.data:ti_sysbios_knl_Task_Module__state__V 
*          0    20000100    00000044     UNINITIALIZED
                  20000100    00000044     labra_pem3.oem3 (.data:ti_sysbios_knl_Task_Module__state__V)

.data:ti_sysbios_family_arm_m3_Hwi_Module__state__V 
*          0    20000144    00000034     UNINITIALIZED
                  20000144    00000034     labra_pem3.oem3 (.data:ti_sysbios_family_arm_m3_Hwi_Module__state__V)

.data:ti_sysbios_knl_Clock_Module__state__V 
*          0    20000178    0000002c     UNINITIALIZED
                  20000178    0000002c     labra_pem3.oem3 (.data:ti_sysbios_knl_Clock_Module__state__V)

.data:ti_sysbios_BIOS_Module__state__V 
*          0    200001a4    00000024     UNINITIALIZED
                  200001a4    00000024     labra_pem3.oem3 (.data:ti_sysbios_BIOS_Module__state__V)

.data:ti_sysbios_knl_Swi_Module__state__V 
*          0    200001c8    0000001c     UNINITIALIZED
                  200001c8    0000001c     labra_pem3.oem3 (.data:ti_sysbios_knl_Swi_Module__state__V)

.data:ti_sysbios_family_arm_cc26xx_Timer_Module__state__V 
*          0    200001e4    00000008     UNINITIALIZED
                  200001e4    00000008     labra_pem3.oem3 (.data:ti_sysbios_family_arm_cc26xx_Timer_Module__state__V)

.data:ti_sysbios_family_arm_cc26xx_TimestampProvider_Module__state__V 
*          0    200001ec    00000004     UNINITIALIZED
                  200001ec    00000004     labra_pem3.oem3 (.data:ti_sysbios_family_arm_cc26xx_TimestampProvider_Module__state__V)

.data:xdc_runtime_Startup_Module__state__V 
*          0    200001f0    00000008     UNINITIALIZED
                  200001f0    00000008     labra_pem3.oem3 (.data:xdc_runtime_Startup_Module__state__V)

.data:xdc_runtime_System_Module__state__V 
*          0    200001f8    00000008     UNINITIALIZED
                  200001f8    00000008     labra_pem3.oem3 (.data:xdc_runtime_System_Module__state__V)

.data:xdc_runtime_Memory_Module__state__V 
*          0    20000200    00000004     UNINITIALIZED
                  20000200    00000004     labra_pem3.oem3 (.data:xdc_runtime_Memory_Module__state__V)

.bss       0    20000208    00001453     UNINITIALIZED
                  20000208    00000800     (.common:labTaskStack)
                  20000a08    00000400     (.common:ti_sysbios_heaps_HeapMem_Instance_State_0_buf__A)
                  20000e08    00000200     labra_pem3.oem3 (.bss:taskStackSection)
                  20001008    00000120     rtsv7M3_T_le_eabi.lib : trgmsg.obj (.bss:_CIOBUF_)
                  20001128    00000114     (.common:uartCC26XXObjects)
                  2000123c    000000e0     (.common:i2cCC26xxObjects)
                  2000131c    000000c8     (.common:ti_sysbios_family_arm_m3_Hwi_dispatchTable)
                  200013e4    00000080     CC2650STK.obj (.bss:uartStringBuf)
                  20001464    00000080     (.common:xdc_runtime_SysMin_Module_State_0_outbuf__A)
                  200014e4    0000007c     drivers_cc26xxware.aem3 : PINCC26XX.oem3 (.bss:PIN_HandleTable)
                  20001560    00000034                             : PINCC26XX.oem3 (.bss:PinSwi)
                  20001594    00000020     (.common:PinGpioConfigTable)
                  200015b4    00000020     (.common:displayUartObject)
                  200015d4    0000001c     (.common:PinHwi)
                  200015f0    0000001c     (.common:PinSem)
                  2000160c    00000014     driverlib.lib : osc.obj (.bss:oscHfGlobals)
                  20001620    0000000c     main.obj (.bss:buttonState)
                  2000162c    0000000c     main.obj (.bss:ledState)
                  20001638    00000008     main.obj (.bss)
                  20001640    00000008     rtsv7M3_T_le_eabi.lib : trgdrv.obj (.bss:parmbuf)
                  20001648    00000008     driverlib.lib : sys_ctrl.obj (.bss:powerQualGlobals)
                  20001650    00000004     (.common:PIN_NumPins)
                  20001654    00000004     (.common:pPinGpio)
                  20001658    00000001     (.common:driverlib_release_0_46593)
                  20001659    00000001     (.common:uartRxPowerConstraint)
                  2000165a    00000001     (.common:uartTxPowerConstraint)

.data      0    20001660    00000356     UNINITIALIZED
                  20001660    00000110     drivers_cc26xxware.aem3 : PowerCC26XX.oem3 (.data:PowerCC26XX_module)
                  20001770    0000004c     labra_pem3.oem3 (.data:ti_sysbios_knl_Task_Object__table__V)
                  200017bc    00000004     drivers_cc26xxware.aem3 : I2C.oem3 (.data)
                  200017c0    00000048     labra_pem3.oem3 (.data:ti_sysbios_family_arm_cc26xx_Timer_Object__table__V)
                  20001808    00000038     labra_pem3.oem3 (.data:ti_sysbios_gates_GateMutex_Object__table__V)
                  20001840    00000030     labra_pem3.oem3 (.data:ti_sysbios_knl_Swi_Module_State_0_readyQ__A)
                  20001870    00000030     labra_pem3.oem3 (.data:ti_sysbios_knl_Swi_Object__table__V)
                  200018a0    00000020     labra_pem3.oem3 (.data:ti_sysbios_knl_Clock_Object__table__V)
                  200018c0    00000020     labra_pem3.oem3 (.data:ti_sysbios_knl_Task_Module_State_0_readyQ__A)
                  200018e0    00000018     labra_pem3.oem3 (.data:ti_sysbios_family_arm_m3_Hwi_Object__table__V)
                  200018f8    00000018     labra_pem3.oem3 (.data:ti_sysbios_heaps_HeapMem_Object__table__V)
                  20001910    0000000c     labra_pem3.oem3 (.data:xdc_runtime_SysMin_Module__state__V)
                  2000191c    00000008     rtsv7M3_T_le_eabi.lib : _lock.obj (.data:$O1$$)
                  20001924    00000008     main.obj (.data:buttonConfig)
                  2000192c    00000008     main.obj (.data:ledConfig)
                  20001934    00000008     labra_pem3.oem3 (.data:ti_sysbios_family_arm_m3_Hwi_Module__root__V)
                  2000193c    00000008     labra_pem3.oem3 (.data:ti_sysbios_gates_GateHwi_Module__root__V)
                  20001944    00000008     labra_pem3.oem3 (.data:ti_sysbios_gates_GateMutex_Module__root__V)
                  2000194c    00000008     labra_pem3.oem3 (.data:ti_sysbios_hal_Hwi_Module__root__V)
                  20001954    00000008     labra_pem3.oem3 (.data:ti_sysbios_heaps_HeapMem_Module__root__V)
                  2000195c    00000008     labra_pem3.oem3 (.data:ti_sysbios_knl_Clock_Module__root__V)
                  20001964    00000008     labra_pem3.oem3 (.data:ti_sysbios_knl_Mailbox_Module__root__V)
                  2000196c    00000008     labra_pem3.oem3 (.data:ti_sysbios_knl_Queue_Module__root__V)
                  20001974    00000008     labra_pem3.oem3 (.data:ti_sysbios_knl_Semaphore_Module__root__V)
                  2000197c    00000008     labra_pem3.oem3 (.data:ti_sysbios_knl_Swi_Module__root__V)
                  20001984    00000008     labra_pem3.oem3 (.data:ti_sysbios_knl_Task_Module__root__V)
                  2000198c    00000008     labra_pem3.oem3 (.data:xdc_runtime_Registry_Module__state__V)
                  20001994    00000008     labra_pem3.oem3 (.data:xdc_runtime_System_Module_State_0_atexitHandlers__A)
                  2000199c    00000004     drivers_cc26xxware.aem3 : UART.oem3 (.data)
                  200019a0    00000004     rtsv7M3_T_le_eabi.lib : errno.obj (.data)
                  200019a4    00000004                           : stkdepth_vars.obj (.data)
                  200019a8    00000004     labra_pem3.oem3 (.data:ti_sysbios_family_arm_m3_Hwi_Module_State_0_excContext__A)
                  200019ac    00000004     labra_pem3.oem3 (.data:ti_sysbios_family_arm_m3_Hwi_Module_State_0_excStack__A)
                  200019b0    00000004     labra_pem3.oem3 (.data:ti_sysbios_knl_Task_Module_State_0_idleTask__A)
                  200019b4    00000002     labra_pem3.oem3 (.data:ti_sysbios_family_arm_m3_Hwi_Module_State_0_excActive__A)

.stack     0    20004d00    00000300     UNINITIALIZED
                  20004d00    00000300     --HOLE--

.bootVecs 
*          0    00000000    00000008     DSECT
                  00000000    00000008     boot.aem3 : boot.oem3 (.bootVecs)

xdc.meta   0    00000000    000000f6     COPY SECTION
                  00000000    000000f6     labra_pem3.oem3 (xdc.meta)

xdc.noload 
*          0    00000000    00000000     COPY SECTION

MODULE SUMMARY

       Module                            code    ro data   rw data
       ------                            ----    -------   -------
    .\
       main.obj                          902     0         2096   
       CC2650STK.obj                     0       268       660    
       ccfg.obj                          0       88        0      
    +--+---------------------------------+-------+---------+---------+
       Total:                            902     356       2756   
                                                                  
    .\sensors\
       opt3001.obj                       521     0         0      
    +--+---------------------------------+-------+---------+---------+
       Total:                            521     0         0      
                                                                  
    C:\Users\lassi\Desktop\tkj\JTKJ_labra_2020\JTKJ_labra_2020\Debug\configPkg\package\cfg\
       labra_pem3.oem3                   934     1487      2866   
    +--+---------------------------------+-------+---------+---------+
       Total:                            934     1487      2866   
                                                                  
    C:/ti/tirtos_cc13xx_cc26xx_2_20_00_06/products/cc26xxware_2_24_02_17202/driverlib/bin/ccs/driverlib.lib
       setup.obj                         1682    0         0      
       sys_ctrl.obj                      712     0         8      
       osc.obj                           332     0         20     
       chipinfo.obj                      228     0         0      
       ddi.obj                           180     0         0      
       aon_rtc.obj                       44      0         0      
       adi.obj                           40      0         0      
       aon_batmon.obj                    40      0         0      
       cpu.obj                           30      0         0      
       vims.obj                          14      0         0      
       driverlib_release.obj             0       0         1      
    +--+---------------------------------+-------+---------+---------+
       Total:                            3302    0         29     
                                                                  
    C:/ti/tirtos_cc13xx_cc26xx_2_20_00_06/products/tidrivers_cc13xx_cc26xx_2_20_00_08/packages/ti/drivers/lib/drivers_cc26xxware.aem3
       UARTCC26XX.oem3                   2472    104       2      
       PowerCC26XX.oem3                  2064    76        272    
       PINCC26XX.oem3                    1330    0         272    
       PowerCC26XX_calibrateRCOSC.oem3   1400    0         0      
       I2CCC26XX.oem3                    1358    32        0      
       UART.oem3                         148     36        4      
       I2C.oem3                          130     16        4      
       List.oem3                         82      0         0      
    +--+---------------------------------+-------+---------+---------+
       Total:                            8984    264       554    
                                                                  
    C:/ti/tirtos_cc13xx_cc26xx_2_20_00_06/products/tidrivers_cc13xx_cc26xx_2_20_00_08/packages/ti/drivers/lib/power_cc26xx_tirtos.aem3
       PowerCC26XX_tirtos.oem3           188     0         0      
    +--+---------------------------------+-------+---------+---------+
       Total:                            188     0         0      
                                                                  
    C:/ti/tirtos_cc13xx_cc26xx_2_20_00_06/products/tidrivers_cc13xx_cc26xx_2_20_00_08/packages/ti/drivers/ports/lib/tirtosport.aem3
       HwiP_tirtos.oem3                  4       0         0      
    +--+---------------------------------+-------+---------+---------+
       Total:                            4       0         0      
                                                                  
    C:/ti/tirtos_cc13xx_cc26xx_2_20_00_06/products/tidrivers_cc13xx_cc26xx_2_20_00_08/packages/ti/mw/display/lib/display.aem3
       DisplayUart.oem3                  204     28        0      
       Display.oem3                      128     1         0      
    +--+---------------------------------+-------+---------+---------+
       Total:                            332     29        0      
                                                                  
    C:\Users\lassi\Desktop\tkj\JTKJ_labra_2020\JTKJ_labra_2020\src\sysbios\rom_sysbios.aem3
       rom_sysbios.obj                   2495    0         0      
       rom_sysbios_config.obj            52      0         0      
    +--+---------------------------------+-------+---------+---------+
       Total:                            2547    0         0      
                                                                  
    C:\ti\ccsv6\tools\compiler\ti-cgt-arm_15.12.1.LTS\lib\rtsv7M3_T_le_eabi.lib
       _printfi.obj                      4336    0         0      
       e_pow.obj                         2480    48        0      
       trgdrv.obj                        804     0         8      
       ull_div_t2.obj                    500     0         0      
       fd_add_t2.obj                     438     0         0      
       trgmsg.obj                        104     0         288    
       e_sqrt.obj                        388     0         0      
       fd_div_t2.obj                     310     0         0      
       fd_cmp_t2.obj                     268     0         0      
       ctype.obj                         0       257       0      
       fd_mul_t2.obj                     252     0         0      
       s_scalbn.obj                      208     0         0      
       memcpy_t2.obj                     156     0         0      
       memset_t2.obj                     122     0         0      
       copy_decompress_rle.obj           112     0         0      
       sprintf.obj                       96      0         0      
       s_frexp.obj                       92      0         0      
       ltoa.obj                          86      0         0      
       atoi.obj                          76      0         0      
       cpy_tbl.obj                       76      0         0      
       fd_toi_t2.obj                     72      0         0      
       fd_tou_t2.obj                     68      0         0      
       u_divt2.obj                       64      0         0      
       fs_tod_t2.obj                     56      0         0      
       i_tofd_t2.obj                     46      0         0      
       u_tofd_t2.obj                     32      0         0      
       _lock.obj                         20      0         8      
       memccpy.obj                       26      0         0      
       args_main.obj                     24      0         0      
       ll_mul_t2.obj                     24      0         0      
       strchr.obj                        22      0         0      
       strcpy.obj                        22      0         0      
       strlen.obj                        20      0         0      
       copy_decompress_none.obj          14      0         0      
       s_copysign.obj                    8       0         0      
       errno.obj                         0       0         4      
       stkdepth_vars.obj                 0       0         4      
       i_div0.obj                        2       0         0      
    +--+---------------------------------+-------+---------+---------+
       Total:                            11424   305       312    
                                                                  
    C:\ti\tirtos_cc13xx_cc26xx_2_20_00_06\products\bios_6_46_00_23\packages\ti\targets\arm\rtsarm\lib\auto_init.aem3
       auto_init.oem3                    160     0         0      
    +--+---------------------------------+-------+---------+---------+
       Total:                            160     0         0      
                                                                  
    C:\ti\tirtos_cc13xx_cc26xx_2_20_00_06\products\bios_6_46_00_23\packages\ti\targets\arm\rtsarm\lib\boot.aem3
       boot.oem3                         68      0         0      
    +--+---------------------------------+-------+---------+---------+
       Total:                            68      0         0      
                                                                  
       Stack:                            0       0         768    
       Linker Generated:                 384     812       0      
    +--+---------------------------------+-------+---------+---------+
       Grand Total:                      29750   3253      7285   


LINKER GENERATED COPY TABLES

__TI_cinit_table @ 0000814c records: 13, size/record: 8, table size: 104
	.data: load addr=00007e48, load size=000001c9 bytes, run addr=20001660, run size=00000356 bytes, compression=rle
	.data:ti_sysbios_family_arm_m3_Hwi_Module__state__V: load addr=00008018, load size=0000002c bytes, run addr=20000144, run size=00000034 bytes, compression=rle
	.data:ti_sysbios_knl_Task_Module__state__V: load addr=00008048, load size=0000002c bytes, run addr=20000100, run size=00000044 bytes, compression=rle
	.data:ti_sysbios_knl_Clock_Module__state__V: load addr=00008078, load size=00000021 bytes, run addr=20000178, run size=0000002c bytes, compression=rle
	.data:ti_sysbios_BIOS_Module__state__V: load addr=000080a0, load size=0000001f bytes, run addr=200001a4, run size=00000024 bytes, compression=rle
	.data:ti_sysbios_knl_Swi_Module__state__V: load addr=000080c0, load size=00000011 bytes, run addr=200001c8, run size=0000001c bytes, compression=rle
	.data:ti_sysbios_family_arm_cc26xx_Timer_Module__state__V: load addr=000080d8, load size=0000000d bytes, run addr=200001e4, run size=00000008 bytes, compression=rle
	.data:xdc_runtime_System_Module__state__V: load addr=000080e8, load size=0000000d bytes, run addr=200001f8, run size=00000008 bytes, compression=rle
	.bss: load addr=000080f8, load size=0000000b bytes, run addr=20000208, run size=00001453 bytes, compression=rle
	.data:xdc_runtime_Memory_Module__state__V: load addr=00008108, load size=0000000a bytes, run addr=20000200, run size=00000004 bytes, compression=rle
	.data:ti_sysbios_family_arm_cc26xx_TimestampProvider_Module__state__V: load addr=00008118, load size=00000009 bytes, run addr=200001ec, run size=00000004 bytes, compression=rle
	.data:xdc_runtime_Startup_Module__state__V: load addr=00008128, load size=00000009 bytes, run addr=200001f0, run size=00000008 bytes, compression=rle
	.vecs: load addr=00008138, load size=00000009 bytes, run addr=20000000, run size=000000c8 bytes, compression=rle


LINKER GENERATED HANDLER TABLE

__TI_handler_table @ 00008144 records: 2, size/record: 4, table size: 8
	index: 0, handler: __TI_decompress_rle24
	index: 1, handler: __TI_decompress_none


FAR CALL TRAMPOLINES

callee name               trampoline name
   callee addr  tramp addr   call addr  call info
--------------  -----------  ---------  ----------------
xdc_runtime_Startup_startMods__I  $Tramp$TT$L$PI$$xdc_runtime_Startup_startMods__I
   1001c30d     000078ac     000076e6   labra_pem3.oem3 (.text:xdc_runtime_Startup_exec__I)
ti_sysbios_knl_Clock_logTick__E  $Tramp$TT$L$PI$$ti_sysbios_knl_Clock_logTick__E
   1001be67     000078b4     000076ca   labra_pem3.oem3 (.text:ti_sysbios_knl_Clock_doTick__I)
ti_sysbios_knl_Task_Params__init__S  $Tramp$TT$L$PI$$ti_sysbios_knl_Task_Params__init__S
   1001c1d9     000078bc     0000765e   main.obj (.text:ti_sysbios_knl_Task_Params_init)
ti_sysbios_BIOS_RtsGateProxy_leave__E  $Tramp$TT$L$PI$$ti_sysbios_BIOS_RtsGateProxy_leave__E
   1001c24d     000078c4     000075d2   labra_pem3.oem3 (.text:ti_sysbios_BIOS_rtsUnlock__I)
ti_sysbios_BIOS_RtsGateProxy_enter__E  $Tramp$TT$L$PI$$ti_sysbios_BIOS_RtsGateProxy_enter__E
   1001c249     000078cc     00007262   labra_pem3.oem3 (.text:ti_sysbios_BIOS_rtsLock__I)
ti_sysbios_knl_Task_startup__E  $Tramp$TT$L$PI$$ti_sysbios_knl_Task_startup__E
   1001c309     000078d4     00006e34   labra_pem3.oem3 (.text:ti_sysbios_BIOS_startFunc__I)
ti_sysbios_knl_Swi_startup__E  $Tramp$TT$L$PI$$ti_sysbios_knl_Swi_startup__E
   1001c23d     000078dc     00006e30   labra_pem3.oem3 (.text:ti_sysbios_BIOS_startFunc__I)
ti_sysbios_hal_Hwi_startup__E  $Tramp$TT$L$PI$$ti_sysbios_hal_Hwi_startup__E
   1001c28d     000078e4     00006e2c   labra_pem3.oem3 (.text:ti_sysbios_BIOS_startFunc__I)
ti_sysbios_family_arm_cc26xx_Timer_startup__E  $Tramp$TT$L$PI$$ti_sysbios_family_arm_cc26xx_Timer_startup__E
   1001b795     000078ec     00006e28   labra_pem3.oem3 (.text:ti_sysbios_BIOS_startFunc__I)
xdc_runtime_System_atexit__E  $Tramp$TT$L$PI$$xdc_runtime_System_atexit__E
   1001c681     000078f4     00006e20   labra_pem3.oem3 (.text:ti_sysbios_BIOS_startFunc__I)
ti_sysbios_BIOS_setThreadType__E  $Tramp$TT$L$PI$$ti_sysbios_BIOS_setThreadType__E
   1001c045     000078fc     00006dec   labra_pem3.oem3 (.text:ti_sysbios_BIOS_atExitFunc__I)
                             00007642   labra_pem3.oem3 (.text:ti_sysbios_BIOS_exitFunc__I)
xdc_runtime_Gate_leaveSystem__E  $Tramp$TT$L$PI$$xdc_runtime_Gate_leaveSystem__E
   1001c879     00007904     0000697c   rom_sysbios.aem3 : rom_sysbios.obj (.text:xdc_runtime_SysMin_flush__E)
                             00006c44                    : rom_sysbios.obj (.text:xdc_runtime_SysMin_putch__E)
xdc_runtime_Gate_enterSystem__E  $Tramp$TT$L$PI$$xdc_runtime_Gate_enterSystem__E
   1001c885     0000790c     0000694e   rom_sysbios.aem3 : rom_sysbios.obj (.text:xdc_runtime_SysMin_flush__E)
                             00006c26                    : rom_sysbios.obj (.text:xdc_runtime_SysMin_putch__E)
xdc_runtime_System_exit__E  $Tramp$TT$L$PI$$xdc_runtime_System_exit__E
   1001c7d1     00007914     000068f0   boot.aem3 : boot.oem3 (.text)
                             00007648   labra_pem3.oem3 (.text:ti_sysbios_BIOS_exitFunc__I)
ti_sysbios_knl_Clock_destruct  $Tramp$TT$L$PI$$ti_sysbios_knl_Clock_destruct
   1001c2b9     0000791c     0000584c   drivers_cc26xxware.aem3 : UARTCC26XX.oem3 (.text:UARTCC26XX_close)
ti_sysbios_knl_Semaphore_destruct  $Tramp$TT$L$PI$$ti_sysbios_knl_Semaphore_destruct
   1001c2e1     00007924     00005838   drivers_cc26xxware.aem3 : UARTCC26XX.oem3 (.text:UARTCC26XX_close)
                             00005844                           : UARTCC26XX.oem3 (.text:UARTCC26XX_close)
                             00005dcc                           : I2CCC26XX.oem3 (.text:I2CCC26XX_close)
                             00005dd8                           : I2CCC26XX.oem3 (.text:I2CCC26XX_close)
                             00007456   display.aem3 : DisplayUart.oem3 (.text:DisplayUart_close)
ti_sysbios_knl_Swi_destruct  $Tramp$TT$L$PI$$ti_sysbios_knl_Swi_destruct
   1001c2e9     0000792c     0000582c   drivers_cc26xxware.aem3 : UARTCC26XX.oem3 (.text:UARTCC26XX_close)
                             00005dc4                           : I2CCC26XX.oem3 (.text:I2CCC26XX_close)
ti_sysbios_family_arm_m3_Hwi_destruct  $Tramp$TT$L$PI$$ti_sysbios_family_arm_m3_Hwi_destruct
   1001c261     00007934     00005824   drivers_cc26xxware.aem3 : UARTCC26XX.oem3 (.text:UARTCC26XX_close)
                             00005dbc                           : I2CCC26XX.oem3 (.text:I2CCC26XX_close)
ti_sysbios_knl_Clock_scheduleNextTick__E  $Tramp$TT$L$PI$$ti_sysbios_knl_Clock_scheduleNextTick__E
   1001bebd     0000793c     00005052   rom_sysbios.aem3 : rom_sysbios.obj (.text:ti_sysbios_knl_Clock_workFuncDynamic__E)
ti_sysbios_knl_Clock_walkQueueDynamic__E  $Tramp$TT$L$PI$$ti_sysbios_knl_Clock_walkQueueDynamic__E
   1001a80d     00007944     0000501a   rom_sysbios.aem3 : rom_sysbios.obj (.text:ti_sysbios_knl_Clock_workFuncDynamic__E)
                             00005036                    : rom_sysbios.obj (.text:ti_sysbios_knl_Clock_workFuncDynamic__E)
ti_sysbios_knl_Clock_TimerProxy_getCurrentTick__E  $Tramp$TT$L$PI$$ti_sysbios_knl_Clock_TimerProxy_getCurrentTick__E
   1001c095     0000794c     00004fe8   rom_sysbios.aem3 : rom_sysbios.obj (.text:ti_sysbios_knl_Clock_workFuncDynamic__E)
                             00006ff2                    : rom_sysbios.obj (.text:ti_sysbios_knl_Clock_getTicksUntilInterrupt__E)
ti_sysbios_knl_Semaphore_post__E  $Tramp$TT$L$PI$$ti_sysbios_knl_Semaphore_post__E
   1001ac41     00007954     00004b1c   drivers_cc26xxware.aem3 : I2CCC26XX.oem3 (.text:I2CCC26XX_transfer)
                             000050e6                           : PINCC26XX.oem3 (.text:PIN_open)
                             0000625c   display.aem3 : DisplayUart.oem3 (.text:DisplayUart_put5)
                             0000783a   drivers_cc26xxware.aem3 : I2CCC26XX.oem3 (.text:I2CCC26XX_blockingCallback)
                             00007842                           : UARTCC26XX.oem3 (.text:readSemCallback)
                             00007852                           : UARTCC26XX.oem3 (.text:writeSemCallback)
ti_sysbios_family_arm_m3_Hwi_enableInterrupt__E  $Tramp$TT$L$PI$$ti_sysbios_family_arm_m3_Hwi_enableInterrupt__E
   1001b2dd     0000795c     00004ad8   drivers_cc26xxware.aem3 : I2CCC26XX.oem3 (.text:I2CCC26XX_transfer)
ti_sysbios_family_arm_m3_Hwi_disableInterrupt__E  $Tramp$TT$L$PI$$ti_sysbios_family_arm_m3_Hwi_disableInterrupt__E
   1001b299     00007964     00004ac6   drivers_cc26xxware.aem3 : I2CCC26XX.oem3 (.text:I2CCC26XX_transfer)
ti_sysbios_BIOS_getCpuFreq__E  $Tramp$TT$L$PI$$ti_sysbios_BIOS_getCpuFreq__E
   1001bff9     0000796c     000049ec   drivers_cc26xxware.aem3 : UARTCC26XX.oem3 (.text:UARTCC26XX_initHw)
                             000066d4                           : I2CCC26XX.oem3 (.text:I2CCC26XX_initHw)
ti_sysbios_knl_Swi_post__E  $Tramp$TT$L$PI$$ti_sysbios_knl_Swi_post__E
   1001b321     00007974     00004406   drivers_cc26xxware.aem3 : UARTCC26XX.oem3 (.text:UARTCC26XX_hwiIntFxn)
                             0000456a                           : I2CCC26XX.oem3 (.text:I2CCC26XX_hwiFxn)
                             00004b16                           : I2CCC26XX.oem3 (.text:I2CCC26XX_transfer)
                             000062a4                           : I2CCC26XX.oem3 (.text:I2CCC26XX_swiFxn)
                             000075f0   rom_sysbios.aem3 : rom_sysbios.obj (.text:ti_sysbios_knl_Swi_or__E)
                             000076d2   labra_pem3.oem3 (.text:ti_sysbios_knl_Clock_doTick__I)
ti_sysbios_knl_Semaphore_pend__E  $Tramp$TT$L$PI$$ti_sysbios_knl_Semaphore_pend__E
   1001a0cd     0000797c     0000412a   drivers_cc26xxware.aem3 : UARTCC26XX.oem3 (.text:UARTCC26XX_write)
                             00004166                           : UARTCC26XX.oem3 (.text:UARTCC26XX_write)
                             00004abe                           : I2CCC26XX.oem3 (.text:I2CCC26XX_transfer)
                             00004aee                           : I2CCC26XX.oem3 (.text:I2CCC26XX_transfer)
                             00004c5c                           : UARTCC26XX.oem3 (.text:UARTCC26XX_read)
                             0000507e                           : PINCC26XX.oem3 (.text:PIN_open)
                             0000599e                           : UARTCC26XX.oem3 (.text:writeTxFifoFlush)
                             00006218   display.aem3 : DisplayUart.oem3 (.text:DisplayUart_put5)
ti_sysbios_knl_Clock_setTimeout__E  $Tramp$TT$L$PI$$ti_sysbios_knl_Clock_setTimeout__E
   1001c2c1     00007984     00004072   drivers_cc26xxware.aem3 : PowerCC26XX.oem3 (.text:Power_init)
                             00004b66   power_cc26xx_tirtos.aem3 : PowerCC26XX_tirtos.oem3 (.text:PowerCC26XX_standbyPolicy)
                             00005178   drivers_cc26xxware.aem3 : UARTCC26XX.oem3 (.text:writeFinishedDoCallback)
                             00005304                           : PowerCC26XX.oem3 (.text:switchXOSCHFclockFunc)
                             000056ba                           : PowerCC26XX.oem3 (.text:disableLFClockQualifiers)
                             00006450                           : PowerCC26XX.oem3 (.text:configureXOSCHF)
                             0000666e                           : UARTCC26XX.oem3 (.text:startTxFifoEmptyClk)
ti_sysbios_BIOS_start__E  $Tramp$TT$L$PI$$ti_sysbios_BIOS_start__E
   1001c055     0000798c     00003b32   main.obj (.text:main)
ti_sysbios_knl_Task_create  $Tramp$TT$L$PI$$ti_sysbios_knl_Task_create
   1001ae19     00007994     00003b18   main.obj (.text:main)
ti_sysbios_knl_Clock_start__E  $Tramp$TT$L$PI$$ti_sysbios_knl_Clock_start__E
   1001bfe3     0000799c     000038f0   drivers_cc26xxware.aem3 : PowerCC26XX_calibrateRCOSC.oem3 (.text:PowerCC26XX_doCalibrate)
                             00004078                           : PowerCC26XX.oem3 (.text:Power_init)
                             00004b6c   power_cc26xx_tirtos.aem3 : PowerCC26XX_tirtos.oem3 (.text:PowerCC26XX_standbyPolicy)
                             0000517e   drivers_cc26xxware.aem3 : UARTCC26XX.oem3 (.text:writeFinishedDoCallback)
                             0000530a                           : PowerCC26XX.oem3 (.text:switchXOSCHFclockFunc)
                             000056c0                           : PowerCC26XX.oem3 (.text:disableLFClockQualifiers)
                             00006456                           : PowerCC26XX.oem3 (.text:configureXOSCHF)
                             00006674                           : UARTCC26XX.oem3 (.text:startTxFifoEmptyClk)
                             0000728e   rom_sysbios.aem3 : rom_sysbios.obj (.text:ti_sysbios_knl_Clock_stop__E)
xdc_runtime_System_abortSpin__E  $Tramp$TT$L$PI$$xdc_runtime_System_abortSpin__E
   1001c899     000079a4     00003872   drivers_cc26xxware.aem3 : PowerCC26XX_calibrateRCOSC.oem3 (.text:PowerCC26XX_doCalibrate)
                             00005ee6                           : PowerCC26XX_calibrateRCOSC.oem3 (.text:PowerCC26XX_RCOSC_clockFunc)
ti_sysbios_knl_Clock_construct  $Tramp$TT$L$PI$$ti_sysbios_knl_Clock_construct
   1001b579     000079ac     0000375e   drivers_cc26xxware.aem3 : UARTCC26XX.oem3 (.text:UARTCC26XX_open)
                             00003fde                           : PowerCC26XX.oem3 (.text:Power_init)
                             00003fec                           : PowerCC26XX.oem3 (.text:Power_init)
                             00003ffa                           : PowerCC26XX.oem3 (.text:Power_init)
                             00005bcc                           : PowerCC26XX.oem3 (.text:PowerCC26XX_calibrate)
ti_sysbios_knl_Clock_Params__init__S  $Tramp$TT$L$PI$$ti_sysbios_knl_Clock_Params__init__S
   1001c185     000079b4     00003746   drivers_cc26xxware.aem3 : UARTCC26XX.oem3 (.text:UARTCC26XX_open)
                             00003fc6                           : PowerCC26XX.oem3 (.text:Power_init)
                             00005bb4                           : PowerCC26XX.oem3 (.text:PowerCC26XX_calibrate)
ti_sysbios_family_arm_m3_Hwi_restoreFxn__E  $Tramp$TT$L$PI$$ti_sysbios_family_arm_m3_Hwi_restoreFxn__E
   1001c219     000079bc     00003622   drivers_cc26xxware.aem3 : UARTCC26XX.oem3 (.text:UARTCC26XX_open)
                             00003632                           : UARTCC26XX.oem3 (.text:UARTCC26XX_open)
                             000036b8                           : UARTCC26XX.oem3 (.text:UARTCC26XX_open)
                             000040e2                           : UARTCC26XX.oem3 (.text:UARTCC26XX_write)
                             000040fe                           : UARTCC26XX.oem3 (.text:UARTCC26XX_write)
                             0000419c                           : UARTCC26XX.oem3 (.text:UARTCC26XX_write)
                             000042c8                           : I2CCC26XX.oem3 (.text:I2CCC26XX_open)
                             000042d8                           : I2CCC26XX.oem3 (.text:I2CCC26XX_open)
                             00004716                           : PowerCC26XX.oem3 (.text:Power_releaseDependency)
                             000047e6                           : PowerCC26XX.oem3 (.text:Power_setDependency)
                             00004a98                           : I2CCC26XX.oem3 (.text:I2CCC26XX_transfer)
                             00004aaa                           : I2CCC26XX.oem3 (.text:I2CCC26XX_transfer)
                             00004c00                           : UARTCC26XX.oem3 (.text:UARTCC26XX_read)
                             00004c18                           : UARTCC26XX.oem3 (.text:UARTCC26XX_read)
                             00004c34                           : UARTCC26XX.oem3 (.text:UARTCC26XX_read)
                             00004c82                           : UARTCC26XX.oem3 (.text:UARTCC26XX_read)
                             00004d40                           : PINCC26XX.oem3 (.text:PINCC26XX_setIoCfg)
                             00005136                           : UARTCC26XX.oem3 (.text:writeFinishedDoCallback)
                             000052a6                           : I2CCC26XX.oem3 (.text:I2CCC26XX_cancel)
                             00005332                           : PowerCC26XX.oem3 (.text:switchXOSCHFclockFunc)
                             0000550a                           : UARTCC26XX.oem3 (.text:UARTCC26XX_writeCancel)
                             00005516                           : UARTCC26XX.oem3 (.text:UARTCC26XX_writeCancel)
                             00005558                           : UARTCC26XX.oem3 (.text:UARTCC26XX_writeCancel)
                             00005858                           : UARTCC26XX.oem3 (.text:UARTCC26XX_close)
                             00005a52                           : UARTCC26XX.oem3 (.text:UARTCC26XX_readCancel)
                             00005a80                           : UARTCC26XX.oem3 (.text:UARTCC26XX_readCancel)
                             00005a9c                           : UARTCC26XX.oem3 (.text:UARTCC26XX_readCancel)
                             00005dec                           : I2CCC26XX.oem3 (.text:I2CCC26XX_close)
                             000062e2                           : PowerCC26XX_calibrateRCOSC.oem3 (.text:PowerCC26XX_initiateCalibration)
                             00006350                           : UARTCC26XX.oem3 (.text:UARTCC26XX_control)
                             00006576                           : UARTCC26XX.oem3 (.text:UARTCC26XX_swiIntFxn)
                             000067d6                           : PINCC26XX.oem3 (.text:PIN_setOutputEnable)
                             00006d74                           : PowerCC26XX.oem3 (.text:Power_releaseConstraint)
                             00006da4                           : PowerCC26XX.oem3 (.text:Power_setConstraint)
                             0000711e                           : List.oem3 (.text:List_put)
                             00007230                           : PowerCC26XX.oem3 (.text:Power_unregisterNotify)
ti_sysbios_family_arm_m3_Hwi_disableFxn__E  $Tramp$TT$L$PI$$ti_sysbios_family_arm_m3_Hwi_disableFxn__E
   1001c149     000079c4     00003618   drivers_cc26xxware.aem3 : UARTCC26XX.oem3 (.text:UARTCC26XX_open)
                             000036b2                           : UARTCC26XX.oem3 (.text:UARTCC26XX_open)
                             000040c4                           : UARTCC26XX.oem3 (.text:UARTCC26XX_write)
                             000040e6                           : UARTCC26XX.oem3 (.text:UARTCC26XX_write)
                             0000413e                           : UARTCC26XX.oem3 (.text:UARTCC26XX_write)
                             00004188                           : UARTCC26XX.oem3 (.text:UARTCC26XX_write)
                             000042bc                           : I2CCC26XX.oem3 (.text:I2CCC26XX_open)
                             00004662                           : PowerCC26XX.oem3 (.text:Power_releaseDependency)
                             00004736                           : PowerCC26XX.oem3 (.text:Power_setDependency)
                             00004a84                           : I2CCC26XX.oem3 (.text:I2CCC26XX_transfer)
                             00004bf0                           : UARTCC26XX.oem3 (.text:UARTCC26XX_read)
                             00004c1c                           : UARTCC26XX.oem3 (.text:UARTCC26XX_read)
                             00004c6e                           : UARTCC26XX.oem3 (.text:UARTCC26XX_read)
                             00004d22                           : PINCC26XX.oem3 (.text:PINCC26XX_setIoCfg)
                             0000511e                           : UARTCC26XX.oem3 (.text:writeFinishedDoCallback)
                             00005236                           : I2CCC26XX.oem3 (.text:I2CCC26XX_cancel)
                             000052bc                           : PowerCC26XX.oem3 (.text:switchXOSCHFclockFunc)
                             000054fa                           : UARTCC26XX.oem3 (.text:UARTCC26XX_writeCancel)
                             00005542                           : UARTCC26XX.oem3 (.text:UARTCC26XX_writeCancel)
                             00005850                           : UARTCC26XX.oem3 (.text:UARTCC26XX_close)
                             00005a46                           : UARTCC26XX.oem3 (.text:UARTCC26XX_readCancel)
                             00005a6a                           : UARTCC26XX.oem3 (.text:UARTCC26XX_readCancel)
                             00005de4                           : I2CCC26XX.oem3 (.text:I2CCC26XX_close)
                             000062ce                           : PowerCC26XX_calibrateRCOSC.oem3 (.text:PowerCC26XX_initiateCalibration)
                             00006332                           : UARTCC26XX.oem3 (.text:UARTCC26XX_control)
                             0000655e                           : UARTCC26XX.oem3 (.text:UARTCC26XX_swiIntFxn)
                             000067c0                           : PINCC26XX.oem3 (.text:PIN_setOutputEnable)
                             00006d54                           : PowerCC26XX.oem3 (.text:Power_releaseConstraint)
                             00006d84                           : PowerCC26XX.oem3 (.text:Power_setConstraint)
                             00007220                           : PowerCC26XX.oem3 (.text:Power_unregisterNotify)
                             0000788e   tirtosport.aem3 : HwiP_tirtos.oem3 (.text:HwiP_disable)
ti_sysbios_knl_Swi_construct  $Tramp$TT$L$PI$$ti_sysbios_knl_Swi_construct
   1001b085     000079cc     000033e8   drivers_cc26xxware.aem3 : PINCC26XX.oem3 (.text:PIN_init)
                             00003702                           : UARTCC26XX.oem3 (.text:UARTCC26XX_open)
                             00004334                           : I2CCC26XX.oem3 (.text:I2CCC26XX_open)
ti_sysbios_knl_Swi_Params__init__S  $Tramp$TT$L$PI$$ti_sysbios_knl_Swi_Params__init__S
   1001c1cd     000079d4     000033d6   drivers_cc26xxware.aem3 : PINCC26XX.oem3 (.text:PIN_init)
                             000036ec                           : UARTCC26XX.oem3 (.text:UARTCC26XX_open)
                             00004320                           : I2CCC26XX.oem3 (.text:I2CCC26XX_open)
ti_sysbios_family_arm_m3_Hwi_construct  $Tramp$TT$L$PI$$ti_sysbios_family_arm_m3_Hwi_construct
   1001af29     000079dc     000033ca   drivers_cc26xxware.aem3 : PINCC26XX.oem3 (.text:PIN_init)
                             000036e0                           : UARTCC26XX.oem3 (.text:UARTCC26XX_open)
                             00004314                           : I2CCC26XX.oem3 (.text:I2CCC26XX_open)
                             00005bdc                           : PowerCC26XX.oem3 (.text:PowerCC26XX_calibrate)
ti_sysbios_family_arm_m3_Hwi_Params__init__S  $Tramp$TT$L$PI$$ti_sysbios_family_arm_m3_Hwi_Params__init__S
   1001c13d     000079e4     000033b4   drivers_cc26xxware.aem3 : PINCC26XX.oem3 (.text:PIN_init)
                             000036c8                           : UARTCC26XX.oem3 (.text:UARTCC26XX_open)
                             000042fc                           : I2CCC26XX.oem3 (.text:I2CCC26XX_open)
ti_sysbios_knl_Semaphore_construct  $Tramp$TT$L$PI$$ti_sysbios_knl_Semaphore_construct
   1001b709     000079ec     00003352   drivers_cc26xxware.aem3 : PINCC26XX.oem3 (.text:PIN_init)
                             00003722                           : UARTCC26XX.oem3 (.text:UARTCC26XX_open)
                             00003736                           : UARTCC26XX.oem3 (.text:UARTCC26XX_open)
                             00004350                           : I2CCC26XX.oem3 (.text:I2CCC26XX_open)
                             00004360                           : I2CCC26XX.oem3 (.text:I2CCC26XX_open)
                             000064ee   display.aem3 : DisplayUart.oem3 (.text:DisplayUart_open)
ti_sysbios_knl_Semaphore_Params__init__S  $Tramp$TT$L$PI$$ti_sysbios_knl_Semaphore_Params__init__S
   1001c1c1     000079f4     00003340   drivers_cc26xxware.aem3 : PINCC26XX.oem3 (.text:PIN_init)
                             0000370e                           : UARTCC26XX.oem3 (.text:UARTCC26XX_open)
                             00004340                           : I2CCC26XX.oem3 (.text:I2CCC26XX_open)
                             000064e0   display.aem3 : DisplayUart.oem3 (.text:DisplayUart_open)
ti_sysbios_knl_Task_sleep__E  $Tramp$TT$L$PI$$ti_sysbios_knl_Task_sleep__E
   1001a96d     000079fc     00002f7a   main.obj (.text:labTaskFxn)
                             00003038   main.obj (.text:labTaskFxn)
xdc_runtime_System_abort__E  $Tramp$TT$L$PI$$xdc_runtime_System_abort__E
   1001c749     00007a04     00002f0a   main.obj (.text:labTaskFxn)
                             00002fca   main.obj (.text:labTaskFxn)
                             00003ab0   main.obj (.text:main)
                             00003ad0   main.obj (.text:main)
                             00003ae8   main.obj (.text:main)
                             00003afa   main.obj (.text:main)
                             00003b24   main.obj (.text:main)
ti_sysbios_knl_Task_restore__E  $Tramp$TT$L$PI$$ti_sysbios_knl_Task_restore__E
   1001ba49     00007a0c     000028d0   drivers_cc26xxware.aem3 : PowerCC26XX.oem3 (.text:Power_sleep)
ti_sysbios_knl_Swi_restore__E  $Tramp$TT$L$PI$$ti_sysbios_knl_Swi_restore__E
   1001b5e1     00007a14     000028c6   drivers_cc26xxware.aem3 : PowerCC26XX.oem3 (.text:Power_sleep)
ti_sysbios_knl_Swi_disable__E  $Tramp$TT$L$PI$$ti_sysbios_knl_Swi_disable__E
   1001c0d5     00007a1c     00002722   drivers_cc26xxware.aem3 : PowerCC26XX.oem3 (.text:Power_sleep)
                             00006de2   labra_pem3.oem3 (.text:ti_sysbios_BIOS_atExitFunc__I)
ti_sysbios_knl_Task_disable__E  $Tramp$TT$L$PI$$ti_sysbios_knl_Task_disable__E
   1001c0f5     00007a24     0000270a   drivers_cc26xxware.aem3 : PowerCC26XX.oem3 (.text:Power_sleep)
                             00006de6   labra_pem3.oem3 (.text:ti_sysbios_BIOS_atExitFunc__I)

[48 trampolines]
[190 trampoline calls]


GLOBAL SYMBOLS: SORTED ALPHABETICALLY BY Name 

address   name                                                                      
-------   ----                                                                      
00007b34  BoardGpioInitTable                                                        
00005d5f  C$$IO$$                                                                   
00003603  DisplayUart_clear                                                         
00003d43  DisplayUart_clearLines                                                    
00007445  DisplayUart_close                                                         
0000785f  DisplayUart_control                                                       
00007d34  DisplayUart_fxnTable                                                      
00007865  DisplayUart_getType                                                       
000064bd  DisplayUart_open                                                          
0000620d  DisplayUart_put5                                                          
00007d50  Display_config                                                            
00007b31  Display_defaultParams                                                     
00007799  Display_doClear                                                           
00006685  Display_doOpen                                                            
0000786b  Display_doParamsInit                                                      
000070d9  Display_doPut5                                                            
0000269b  HOSTclock                                                                 
00002663  HOSTclose                                                                 
00002625  HOSTgetenv                                                                
000025c9  HOSTlseek                                                                 
00002577  HOSTopen                                                                  
0000252b  HOSTread                                                                  
000024cd  HOSTrename                                                                
00002493  HOSTtime                                                                  
00002449  HOSTtime64                                                                
00002411  HOSTunlink                                                                
000023c5  HOSTwrite                                                                 
0000788f  HwiP_disable                                                              
UNDEFED   HwiP_restore                                                              
00005229  I2CCC26XX_cancel                                                          
00005d99  I2CCC26XX_close                                                           
00007871  I2CCC26XX_control                                                         
00007d14  I2CCC26XX_fxnTable                                                        
00007805  I2CCC26XX_init                                                            
000042ad  I2CCC26XX_open                                                            
00004a65  I2CCC26XX_transfer                                                        
000076f1  I2C_Params_init                                                           
00007d68  I2C_config                                                                
00007e00  I2C_defaultParams                                                         
00006acd  I2C_init                                                                  
00006cf1  I2C_open                                                                  
0000780f  I2C_transfer                                                              
00007819  List_empty                                                                
00007893  List_head                                                                 
00007897  List_next                                                                 
000070ff  List_put                                                                  
000073dd  List_remove                                                               
00007039  NOROM_AONBatMonTemperatureGetDegC                                         
00007665  NOROM_AONRTCCurrent64BitValueGet                                          
0000745d  NOROM_AONRTCCurrentCompareValueGet                                        
000077a5  NOROM_CPUcpsid                                                            
000077b1  NOROM_CPUcpsie                                                            
00007877  NOROM_CPUdelay                                                            
00006715  NOROM_ChipInfo_GetChipFamily                                              
000059cd  NOROM_ChipInfo_GetHwRevision                                              
00007475  NOROM_ChipInfo_GetPackageType                                             
000069d5  NOROM_DDI16BitfieldRead                                                   
0000675d  NOROM_DDI16BitfieldWrite                                                  
00006f31  NOROM_DDI32RegWrite                                                       
00007319  NOROM_OSCClockSourceGet                                                   
00006509  NOROM_OSCClockSourceSet                                                   
00005fe5  NOROM_OSCHF_AttemptToSwitchToXosc                                         
00006c55  NOROM_OSCHF_SwitchToRcOscTurnOffXosc                                      
0000748d  NOROM_OSCHF_TurnOnXosc                                                    
00006a55  NOROM_OSC_HPOSCRelativeFrequencyOffsetGet                                 
00005781  NOROM_SetupAfterColdResetWakeupFromShutDownCfg1                           
00004579  NOROM_SetupAfterColdResetWakeupFromShutDownCfg2                           
00003d45  NOROM_SetupAfterColdResetWakeupFromShutDownCfg3                           
000074a5  NOROM_SetupGetTrimForAdcShModeEn                                          
000074bd  NOROM_SetupGetTrimForAdcShVbufEn                                          
00005b1d  NOROM_SetupGetTrimForAmpcompCtrl                                          
000074d5  NOROM_SetupGetTrimForAmpcompTh1                                           
00007335  NOROM_SetupGetTrimForAmpcompTh2                                           
00005c61  NOROM_SetupGetTrimForAnabypassValue1                                      
000074ed  NOROM_SetupGetTrimForDblrLoopFilterResetVoltage                           
00006f5d  NOROM_SetupGetTrimForRadcExtCfg                                           
00007505  NOROM_SetupGetTrimForRcOscLfIBiasTrim                                     
00007351  NOROM_SetupGetTrimForRcOscLfRtuneCtuneTrim                                
000071fd  NOROM_SetupGetTrimForXoscHfCtl                                            
00007701  NOROM_SetupGetTrimForXoscHfFastStart                                      
00007711  NOROM_SetupGetTrimForXoscHfIbiastherm                                     
0000751d  NOROM_SetupGetTrimForXoscLfRegulatorAndCmirrwrRatio                       
00006d21  NOROM_SetupSetAonRtcSubSecInc                                             
0000646d  NOROM_SetupSetCacheModeAccordingToCcfgSetting                             
00007761  NOROM_SetupSignExtendVddrTrimValue                                        
00004d59  NOROM_SetupTrimDevice                                                     
00006041  NOROM_SysCtrlAdjustRechargeAfterPowerDown                                 
00002911  NOROM_SysCtrlSetRechargeBeforePowerDown                                   
00005cc9  NOROM_SysCtrl_DCDC_VoltageConditionalControl                              
00007679  NOROM_ThisCodeIsBuiltForCC26xxHwRev22AndLater_HaltIfViolated              
0000776f  NOROM_VIMSModeGet                                                         
00007125  PINCC26XX_getPinCount                                                     
00007e1c  PINCC26XX_hwAttrs                                                         
00006f89  PINCC26XX_setMux                                                          
200014e4  PIN_HandleTable                                                           
20001650  PIN_NumPins                                                               
000072dd  PIN_close                                                                 
0000768d  PIN_getOutputValue                                                        
00003289  PIN_init                                                                  
0000506d  PIN_open                                                                  
000077bd  PIN_registerIntCb                                                         
0000609d  PIN_remove                                                                
00006c89  PIN_setConfig                                                             
000067a5  PIN_setOutputEnable                                                       
00006a91  PIN_setOutputValue                                                        
00005ec5  PowerCC26XX_RCOSC_clockFunc                                               
00005871  PowerCC26XX_auxISR                                                        
00005b89  PowerCC26XX_calibrate                                                     
00007df0  PowerCC26XX_config                                                        
00003795  PowerCC26XX_doCalibrate                                                   
000062bd  PowerCC26XX_initiateCalibration                                           
20001660  PowerCC26XX_module                                                        
00004b29  PowerCC26XX_standbyPolicy                                                 
000077c9  Power_getConstraintMask                                                   
000077d5  Power_getDependencyCount                                                  
000072fb  Power_getTransitionLatency                                                
00007535  Power_idleFunc                                                            
00003f99  Power_init                                                                
00007061  Power_registerNotify                                                      
00006d51  Power_releaseConstraint                                                   
0000465d  Power_releaseDependency                                                   
00006d81  Power_setConstraint                                                       
00004731  Power_setDependency                                                       
000026e9  Power_sleep                                                               
0000721d  Power_unregisterNotify                                                    
000068c5  ResetISR                                                                  
UNDEFED   SHT$$INIT_ARRAY$$Base                                                     
UNDEFED   SHT$$INIT_ARRAY$$Limit                                                    
00007089  SafeHapiVoid                                                              
000057f9  UARTCC26XX_close                                                          
00006315  UARTCC26XX_control                                                        
00007ca0  UARTCC26XX_fxnTable                                                       
000043a5  UARTCC26XX_hwiIntFxn                                                      
0000754d  UARTCC26XX_init                                                           
00003605  UARTCC26XX_open                                                           
00004be5  UARTCC26XX_read                                                           
00005a3d  UARTCC26XX_readCancel                                                     
0000787d  UARTCC26XX_readPolling                                                    
00006555  UARTCC26XX_swiIntFxn                                                      
000040b5  UARTCC26XX_write                                                          
000054f1  UARTCC26XX_writeCancel                                                    
00007883  UARTCC26XX_writePolling                                                   
00007565  UART_Params_init                                                          
00007823  UART_close                                                                
00007d80  UART_config                                                               
00007cf0  UART_defaultParams                                                        
00006b05  UART_init                                                                 
00006db1  UART_open                                                                 
0000782d  UART_write                                                                
00000000  __ASM__                                                                   
20001008  __CIOBUF_                                                                 
00000070  __ISA__                                                                   
00000082  __PLAT__                                                                  
20005000  __STACK_END                                                               
00000300  __STACK_SIZE                                                              
000000a9  __TARG__                                                                  
0000814c  __TI_CINIT_Base                                                           
000081b4  __TI_CINIT_Limit                                                          
00008144  __TI_Handler_Table_Base                                                   
0000814c  __TI_Handler_Table_Limit                                                  
00004dfd  __TI_auto_init                                                            
0000777d  __TI_decompress_none                                                      
00007889  __TI_decompress_rle24                                                     
ffffffff  __TI_pprof_out_hndl                                                       
000013d7  __TI_printfi                                                              
ffffffff  __TI_prof_data_size                                                       
ffffffff  __TI_prof_data_start                                                      
00005d63  __TI_readmsg                                                              
00007e48  __TI_static_base__                                                        
00005d31  __TI_writemsg                                                             
000000ce  __TRDR__                                                                  
0000557d  __aeabi_cdcmpeq                                                           
0000557d  __aeabi_cdcmple                                                           
00005603  __aeabi_cdrcmple                                                          
0000687d  __aeabi_d2iz                                                              
00006909  __aeabi_d2uiz                                                             
00003457  __aeabi_dadd                                                              
00003c0d  __aeabi_ddiv                                                              
000041b1  __aeabi_dmul                                                              
0000344d  __aeabi_dsub                                                              
00006b75  __aeabi_f2d                                                               
00006f01  __aeabi_i2d                                                               
00004fd3  __aeabi_idiv0                                                             
000075ad  __aeabi_lmul                                                              
00005705  __aeabi_memclr                                                            
00005705  __aeabi_memclr4                                                           
00005705  __aeabi_memclr8                                                           
00004e9d  __aeabi_memcpy                                                            
00004e9d  __aeabi_memcpy4                                                           
00004e9d  __aeabi_memcpy8                                                           
00005707  __aeabi_memset                                                            
00005707  __aeabi_memset4                                                           
00005707  __aeabi_memset8                                                           
0000723d  __aeabi_ui2d                                                              
00006a15  __aeabi_uidiv                                                             
00006a15  __aeabi_uidivmod                                                          
00002b15  __aeabi_uldivmod                                                          
ffffffff  __binit__                                                                 
ffffffff  __c_args__                                                                
0001ffa8  __ccfg                                                                    
20004d00  __stack                                                                   
00007595  _args_main                                                                
000068c5  _c_int00                                                                  
00007a30  _ctypes_                                                                  
2000191c  _lock                                                                     
000076af  _nop                                                                      
000076a7  _register_lock                                                            
000076a1  _register_unlock                                                          
20001920  _unlock                                                                   
000065a1  atoi                                                                      
ffffffff  binit                                                                     
20001924  buttonConfig                                                              
00006fb5  buttonFxn                                                                 
000065ed  copy_in                                                                   
00007847  copysign                                                                  
00007847  copysignl                                                                 
00007dc8  displayUartHWAttrs                                                        
200015b4  displayUartObject                                                         
20001658  driverlib_release_0_46593                                                 
200019a0  errno                                                                     
000060f9  frexp                                                                     
000060f9  frexpl                                                                    
00007d98  i2cCC26xxHWAttrs                                                          
2000123c  i2cCC26xxObjects                                                          
00002ee5  labTaskFxn                                                                
20000208  labTaskStack                                                              
00004801  ldexp                                                                     
00004801  ldexpl                                                                    
2000192c  ledConfig                                                                 
000063c3  ltoa                                                                      
00003a9d  main                                                                      
200019a4  main_func_sp                                                              
000073f7  memccpy                                                                   
00004e9d  memcpy                                                                    
0000570d  memset                                                                    
00003e75  opt3001_get_data                                                          
0000636d  opt3001_get_status                                                        
00005349  opt3001_setup                                                             
000016dd  pow                                                                       
000016dd  powl                                                                      
00007b9c  resourceDB                                                                
00004801  scalbn                                                                    
00004801  scalbnl                                                                   
00005f25  sprintf                                                                   
00003919  sqrt                                                                      
00003919  sqrtl                                                                     
0000760d  strchr                                                                    
00007623  strcpy                                                                    
000076b5  strlen                                                                    
200001a4  ti_sysbios_BIOS_Module__state__V                                          
1001bc29  ti_sysbios_BIOS_RtsGateProxy_Handle__label__S                             
UNDEFED   ti_sysbios_BIOS_RtsGateProxy_Handle__label__S__mangled__                  
1001bab9  ti_sysbios_BIOS_RtsGateProxy_Object__delete__S                            
UNDEFED   ti_sysbios_BIOS_RtsGateProxy_Object__delete__S__mangled__                 
1001c179  ti_sysbios_BIOS_RtsGateProxy_Params__init__S                              
UNDEFED   ti_sysbios_BIOS_RtsGateProxy_Params__init__S__mangled__                   
1001c249  ti_sysbios_BIOS_RtsGateProxy_enter__E                                     
1001c24d  ti_sysbios_BIOS_RtsGateProxy_leave__E                                     
1001c275  ti_sysbios_BIOS_RtsGateProxy_query__E                                     
UNDEFED   ti_sysbios_BIOS_RtsGateProxy_query__E__mangled__                          
00006de1  ti_sysbios_BIOS_atExitFunc__I                                             
00007639  ti_sysbios_BIOS_exitFunc__I                                               
1001c035  ti_sysbios_BIOS_exit__E                                                   
1001bff9  ti_sysbios_BIOS_getCpuFreq__E                                             
0000577f  ti_sysbios_BIOS_linkedWithIncorrectBootLibrary__E                         
00005b1b  ti_sysbios_BIOS_nullFunc__I                                               
0000716d  ti_sysbios_BIOS_registerRTSLock__I                                        
00007191  ti_sysbios_BIOS_removeRTSLock__I                                          
0000725d  ti_sysbios_BIOS_rtsLock__I                                                
000075c5  ti_sysbios_BIOS_rtsUnlock__I                                              
1001c045  ti_sysbios_BIOS_setThreadType__E                                          
00006e11  ti_sysbios_BIOS_startFunc__I                                              
1001c055  ti_sysbios_BIOS_start__E                                                  
00004d59  ti_sysbios_family_arm_cc26xx_Boot_trimDevice                              
00000502  ti_sysbios_family_arm_cc26xx_Timer_Module__id__C                          
1001bb49  ti_sysbios_family_arm_cc26xx_Timer_Module__startupDone__S                 
200001e4  ti_sysbios_family_arm_cc26xx_Timer_Module__state__V                       
1001ba71  ti_sysbios_family_arm_cc26xx_Timer_Module_startup__E                      
200017c0  ti_sysbios_family_arm_cc26xx_Timer_Object__table__V                       
000073a5  ti_sysbios_family_arm_cc26xx_Timer_dynamicStub__E                         
0000789f  ti_sysbios_family_arm_cc26xx_Timer_getCount64__E                          
00006bad  ti_sysbios_family_arm_cc26xx_Timer_getCurrentTick__E                      
1001c251  ti_sysbios_family_arm_cc26xx_Timer_getExpiredTicks__E                     
000070b1  ti_sysbios_family_arm_cc26xx_Timer_getMaxTicks__E                         
1001c255  ti_sysbios_family_arm_cc26xx_Timer_getPeriod__E                           
00006e41  ti_sysbios_family_arm_cc26xx_Timer_initDevice__I                          
1001a469  ti_sysbios_family_arm_cc26xx_Timer_periodicStub__E                        
1001b769  ti_sysbios_family_arm_cc26xx_Timer_postInit__I                            
00006cbd  ti_sysbios_family_arm_cc26xx_Timer_setNextTick__E                         
1001c259  ti_sysbios_family_arm_cc26xx_Timer_setPeriod__E                           
00006e71  ti_sysbios_family_arm_cc26xx_Timer_setThreshold__I                        
00005e61  ti_sysbios_family_arm_cc26xx_Timer_start__E                               
00000484  ti_sysbios_family_arm_cc26xx_Timer_startupNeeded__C                       
1001b795  ti_sysbios_family_arm_cc26xx_Timer_startup__E                             
200001ec  ti_sysbios_family_arm_cc26xx_TimestampProvider_Module__state__V           
1001bb69  ti_sysbios_family_arm_cc26xx_TimestampProvider_Module_startup__E          
0000778b  ti_sysbios_family_arm_cc26xx_TimestampProvider_get32__E                   
1001b9d1  ti_sysbios_family_arm_cc26xx_TimestampProvider_get64__E                   
1001c12f  ti_sysbios_family_arm_cc26xx_TimestampProvider_getFreq__E                 
00000504  ti_sysbios_family_arm_cc26xx_TimestampProvider_useClockTimer__C           
00000488  ti_sysbios_family_arm_m3_Hwi_E_alreadyDefined__C                          
0000048c  ti_sysbios_family_arm_m3_Hwi_E_hwiLimitExceeded__C                        
1001aed1  ti_sysbios_family_arm_m3_Hwi_Instance_finalize__E                         
1001a3c9  ti_sysbios_family_arm_m3_Hwi_Instance_init__E                             
200019b4  ti_sysbios_family_arm_m3_Hwi_Module_State_0_excActive__A                  
200019a8  ti_sysbios_family_arm_m3_Hwi_Module_State_0_excContext__A                 
200019ac  ti_sysbios_family_arm_m3_Hwi_Module_State_0_excStack__A                   
00000506  ti_sysbios_family_arm_m3_Hwi_Module__id__C                                
20001934  ti_sysbios_family_arm_m3_Hwi_Module__root__V                              
1001bb89  ti_sysbios_family_arm_m3_Hwi_Module__startupDone__S                       
20000144  ti_sysbios_family_arm_m3_Hwi_Module__state__V                             
1001b1c1  ti_sysbios_family_arm_m3_Hwi_Module_startup__E                            
00000490  ti_sysbios_family_arm_m3_Hwi_NUM_INTERRUPTS__C                            
000002d0  ti_sysbios_family_arm_m3_Hwi_Object__DESC__C                              
00000170  ti_sysbios_family_arm_m3_Hwi_Object__PARAMS__C                            
00000494  ti_sysbios_family_arm_m3_Hwi_Object__count__C                             
1001aab1  ti_sysbios_family_arm_m3_Hwi_Object__create__S                            
1001bba9  ti_sysbios_family_arm_m3_Hwi_Object__delete__S                            
1001be69  ti_sysbios_family_arm_m3_Hwi_Object__destruct__S                          
1001b7c1  ti_sysbios_family_arm_m3_Hwi_Object__get__S                               
00000498  ti_sysbios_family_arm_m3_Hwi_Object__table__C                             
200018e0  ti_sysbios_family_arm_m3_Hwi_Object__table__V                             
1001c13d  ti_sysbios_family_arm_m3_Hwi_Params__init__S                              
0000049c  ti_sysbios_family_arm_m3_Hwi_ccr__C                                       
1001af29  ti_sysbios_family_arm_m3_Hwi_construct                                    
1001ab15  ti_sysbios_family_arm_m3_Hwi_create                                       
1001c25d  ti_sysbios_family_arm_m3_Hwi_delete                                       
1001c261  ti_sysbios_family_arm_m3_Hwi_destruct                                     
1001c149  ti_sysbios_family_arm_m3_Hwi_disableFxn__E                                
1001b299  ti_sysbios_family_arm_m3_Hwi_disableInterrupt__E                          
1001aa49  ti_sysbios_family_arm_m3_Hwi_dispatchC__I                                 
2000131c  ti_sysbios_family_arm_m3_Hwi_dispatchTable                                
1001c89d  ti_sysbios_family_arm_m3_Hwi_dispatch__I                                  
1001c1fb  ti_sysbios_family_arm_m3_Hwi_doSwiRestore__I                              
1001c213  ti_sysbios_family_arm_m3_Hwi_doTaskRestore__I                             
1001c155  ti_sysbios_family_arm_m3_Hwi_enableFxn__E                                 
1001b2dd  ti_sysbios_family_arm_m3_Hwi_enableInterrupt__E                           
1001ca01  ti_sysbios_family_arm_m3_Hwi_excHandlerAsm__I                             
000004a0  ti_sysbios_family_arm_m3_Hwi_excHandlerFunc__C                            
1001bbc9  ti_sysbios_family_arm_m3_Hwi_excHandler__I                                
1001b465  ti_sysbios_family_arm_m3_Hwi_getStackInfo__E                              
1001a699  ti_sysbios_family_arm_m3_Hwi_initNVIC__E                                  
1001c9b9  ti_sysbios_family_arm_m3_Hwi_initStacks__E                                
000004a4  ti_sysbios_family_arm_m3_Hwi_nullIsrFunc__C                               
000004a8  ti_sysbios_family_arm_m3_Hwi_numSparseInterrupts__C                       
e000e000  ti_sysbios_family_arm_m3_Hwi_nvic                                         
1001ca3f  ti_sysbios_family_arm_m3_Hwi_pendSV__I                                    
1001c065  ti_sysbios_family_arm_m3_Hwi_plug__E                                      
1001a319  ti_sysbios_family_arm_m3_Hwi_postInit__I                                  
000004ac  ti_sysbios_family_arm_m3_Hwi_priGroup__C                                  
20000000  ti_sysbios_family_arm_m3_Hwi_ramVectors                                   
00000000  ti_sysbios_family_arm_m3_Hwi_resetVectors                                 
1001c219  ti_sysbios_family_arm_m3_Hwi_restoreFxn__E                                
1001ca57  ti_sysbios_family_arm_m3_Hwi_return                                       
1001be85  ti_sysbios_family_arm_m3_Hwi_setPriority__E                               
1001c203  ti_sysbios_family_arm_m3_Hwi_startup__E                                   
1001c00d  ti_sysbios_family_arm_m3_Hwi_switchFromBootStack__E                       
1001c265  ti_sysbios_family_arm_m3_TaskSupport_Module__startupDone__S               
1001c96d  ti_sysbios_family_arm_m3_TaskSupport_buildTaskStack                       
1001c161  ti_sysbios_family_arm_m3_TaskSupport_getStackAlignment__E                 
1001ca59  ti_sysbios_family_arm_m3_TaskSupport_glue                                 
000004b0  ti_sysbios_family_arm_m3_TaskSupport_stackAlignment__C                    
1001b49d  ti_sysbios_family_arm_m3_TaskSupport_start__E                             
1001ca69  ti_sysbios_family_arm_m3_TaskSupport_swap__E                              
1001ca21  ti_sysbios_family_xxx_Hwi_switchAndRunFunc                                
1001bbe9  ti_sysbios_gates_GateHwi_Handle__label__S                                 
1001b463  ti_sysbios_gates_GateHwi_Instance_init__E                                 
0000021c  ti_sysbios_gates_GateHwi_Module__FXNS__C                                  
00000508  ti_sysbios_gates_GateHwi_Module__id__C                                    
2000193c  ti_sysbios_gates_GateHwi_Module__root__V                                  
000002f0  ti_sysbios_gates_GateHwi_Object__DESC__C                                  
00000430  ti_sysbios_gates_GateHwi_Object__PARAMS__C                                
1001ba95  ti_sysbios_gates_GateHwi_Object__create__S                                
1001bc09  ti_sysbios_gates_GateHwi_Object__delete__S                                
1001c16d  ti_sysbios_gates_GateHwi_enter__E                                         
1001c21f  ti_sysbios_gates_GateHwi_leave__E                                         
1001c269  ti_sysbios_gates_GateHwi_query__E                                         
1001bc29  ti_sysbios_gates_GateMutex_Handle__label__S                               
000005cc  ti_sysbios_gates_GateMutex_Instance_State_sem__O                          
1001c075  ti_sysbios_gates_GateMutex_Instance_finalize__E                           
1001bea1  ti_sysbios_gates_GateMutex_Instance_init__E                               
00000240  ti_sysbios_gates_GateMutex_Module__FXNS__C                                
0000050a  ti_sysbios_gates_GateMutex_Module__id__C                                  
20001944  ti_sysbios_gates_GateMutex_Module__root__V                                
00000310  ti_sysbios_gates_GateMutex_Object__DESC__C                                
00000448  ti_sysbios_gates_GateMutex_Object__PARAMS__C                              
1001b649  ti_sysbios_gates_GateMutex_Object__create__S                              
1001bab9  ti_sysbios_gates_GateMutex_Object__delete__S                              
1001bc49  ti_sysbios_gates_GateMutex_Object__destruct__S                            
20001808  ti_sysbios_gates_GateMutex_Object__table__V                               
1001c179  ti_sysbios_gates_GateMutex_Params__init__S                                
1001b7ed  ti_sysbios_gates_GateMutex_construct                                      
1001b679  ti_sysbios_gates_GateMutex_create                                         
1001c26d  ti_sysbios_gates_GateMutex_delete                                         
1001c271  ti_sysbios_gates_GateMutex_destruct                                       
1001b6a9  ti_sysbios_gates_GateMutex_enter__E                                       
1001bf9d  ti_sysbios_gates_GateMutex_leave__E                                       
1001c275  ti_sysbios_gates_GateMutex_query__E                                       
1001c279  ti_sysbios_hal_Hwi_HwiProxy_Module__startupDone__S                        
UNDEFED   ti_sysbios_hal_Hwi_HwiProxy_Module__startupDone__S__mangled__             
1001c085  ti_sysbios_hal_Hwi_HwiProxy_Object__create__S                             
1001bba9  ti_sysbios_hal_Hwi_HwiProxy_Object__delete__S                             
UNDEFED   ti_sysbios_hal_Hwi_HwiProxy_Object__delete__S__mangled__                  
1001c13d  ti_sysbios_hal_Hwi_HwiProxy_Params__init__S                               
UNDEFED   ti_sysbios_hal_Hwi_HwiProxy_Params__init__S__mangled__                    
1001be49  ti_sysbios_hal_Hwi_HwiProxy_create                                        
1001c27d  ti_sysbios_hal_Hwi_HwiProxy_delete                                        
1001c281  ti_sysbios_hal_Hwi_HwiProxy_disableInterrupt__E                           
UNDEFED   ti_sysbios_hal_Hwi_HwiProxy_disableInterrupt__E__mangled__                
1001c285  ti_sysbios_hal_Hwi_HwiProxy_enableInterrupt__E                            
UNDEFED   ti_sysbios_hal_Hwi_HwiProxy_enableInterrupt__E__mangled__                 
1001c289  ti_sysbios_hal_Hwi_HwiProxy_getStackInfo__E                               
UNDEFED   ti_sysbios_hal_Hwi_HwiProxy_getStackInfo__E__mangled__                    
1001c28d  ti_sysbios_hal_Hwi_HwiProxy_startup__E                                    
UNDEFED   ti_sysbios_hal_Hwi_HwiProxy_startup__E__mangled__                         
1001c291  ti_sysbios_hal_Hwi_HwiProxy_switchFromBootStack__E                        
UNDEFED   ti_sysbios_hal_Hwi_HwiProxy_switchFromBootStack__E__mangled__             
1001c1f1  ti_sysbios_hal_Hwi_Instance_finalize__E                                   
1001b9f9  ti_sysbios_hal_Hwi_Instance_init__E                                       
2000194c  ti_sysbios_hal_Hwi_Module__root__V                                        
1001c021  ti_sysbios_hal_Hwi_Module_startup__E                                      
00000330  ti_sysbios_hal_Hwi_Object__DESC__C                                        
000001a0  ti_sysbios_hal_Hwi_Object__PARAMS__C                                      
1001bc69  ti_sysbios_hal_Hwi_Object__delete__S                                      
1001ab79  ti_sysbios_hal_Hwi_create                                                 
1001c295  ti_sysbios_hal_Hwi_delete                                                 
1001c281  ti_sysbios_hal_Hwi_disableInterrupt__E                                    
UNDEFED   ti_sysbios_hal_Hwi_disableInterrupt__E                                    
1001c285  ti_sysbios_hal_Hwi_enableInterrupt__E                                     
UNDEFED   ti_sysbios_hal_Hwi_enableInterrupt__E                                     
1001c289  ti_sysbios_hal_Hwi_getStackInfo__E                                        
UNDEFED   ti_sysbios_hal_Hwi_getStackInfo__E                                        
1001b819  ti_sysbios_hal_Hwi_initStack                                              
1001c28d  ti_sysbios_hal_Hwi_startup__E                                             
UNDEFED   ti_sysbios_hal_Hwi_startup__E                                             
1001c299  ti_sysbios_hal_Hwi_switchFromBootStack__E                                 
UNDEFED   ti_sysbios_hal_Hwi_switchFromBootStack__E                                 
000004b4  ti_sysbios_heaps_HeapMem_E_memory__C                                      
1001bc89  ti_sysbios_heaps_HeapMem_Handle__label__S                                 
20000a08  ti_sysbios_heaps_HeapMem_Instance_State_0_buf__A                          
1001b4d5  ti_sysbios_heaps_HeapMem_Instance_init__E                                 
1001bc29  ti_sysbios_heaps_HeapMem_Module_GateProxy_Handle__label__S                
UNDEFED   ti_sysbios_heaps_HeapMem_Module_GateProxy_Handle__label__S__mangled__     
1001bab9  ti_sysbios_heaps_HeapMem_Module_GateProxy_Object__delete__S               
UNDEFED   ti_sysbios_heaps_HeapMem_Module_GateProxy_Object__delete__S__mangled__    
1001c179  ti_sysbios_heaps_HeapMem_Module_GateProxy_Params__init__S                 
UNDEFED   ti_sysbios_heaps_HeapMem_Module_GateProxy_Params__init__S__mangled__      
1001c29d  ti_sysbios_heaps_HeapMem_Module_GateProxy_enter__E                        
1001c2a1  ti_sysbios_heaps_HeapMem_Module_GateProxy_leave__E                        
1001c275  ti_sysbios_heaps_HeapMem_Module_GateProxy_query__E                        
UNDEFED   ti_sysbios_heaps_HeapMem_Module_GateProxy_query__E__mangled__             
000001cc  ti_sysbios_heaps_HeapMem_Module__FXNS__C                                  
000004b8  ti_sysbios_heaps_HeapMem_Module__gateObj__C                               
0000050c  ti_sysbios_heaps_HeapMem_Module__id__C                                    
20001954  ti_sysbios_heaps_HeapMem_Module__root__V                                  
00000350  ti_sysbios_heaps_HeapMem_Object__DESC__C                                  
00000264  ti_sysbios_heaps_HeapMem_Object__PARAMS__C                                
000004bc  ti_sysbios_heaps_HeapMem_Object__count__C                                 
1001b845  ti_sysbios_heaps_HeapMem_Object__create__S                                
1001bca9  ti_sysbios_heaps_HeapMem_Object__delete__S                                
1001b871  ti_sysbios_heaps_HeapMem_Object__get__S                                   
000004c0  ti_sysbios_heaps_HeapMem_Object__table__C                                 
200018f8  ti_sysbios_heaps_HeapMem_Object__table__V                                 
1001a199  ti_sysbios_heaps_HeapMem_alloc__E                                         
1001a795  ti_sysbios_heaps_HeapMem_free__E                                          
1001b209  ti_sysbios_heaps_HeapMem_getStats__E                                      
1001b545  ti_sysbios_heaps_HeapMem_init__I                                          
1001c2a5  ti_sysbios_heaps_HeapMem_isBlocking__E                                    
000004c4  ti_sysbios_heaps_HeapMem_reqAlign__C                                      
1001c105  ti_sysbios_heaps_HeapMem_restore__E                                       
1001bfcd  ti_sysbios_knl_Clock_Instance_finalize__E                                 
1001b50d  ti_sysbios_knl_Clock_Instance_init__E                                     
000005d0  ti_sysbios_knl_Clock_Module_State_clockQ__O                               
2000195c  ti_sysbios_knl_Clock_Module__root__V                                      
20000178  ti_sysbios_knl_Clock_Module__state__V                                     
1001bcc9  ti_sysbios_knl_Clock_Module_startup__E                                    
00000370  ti_sysbios_knl_Clock_Object__DESC__C                                      
00000288  ti_sysbios_knl_Clock_Object__PARAMS__C                                    
1001badd  ti_sysbios_knl_Clock_Object__delete__S                                    
1001bce9  ti_sysbios_knl_Clock_Object__destruct__S                                  
200018a0  ti_sysbios_knl_Clock_Object__table__V                                     
1001c185  ti_sysbios_knl_Clock_Params__init__S                                      
1001c2a9  ti_sysbios_knl_Clock_TimerProxy_Module__startupDone__S                    
UNDEFED   ti_sysbios_knl_Clock_TimerProxy_Module__startupDone__S__mangled__         
1001c095  ti_sysbios_knl_Clock_TimerProxy_getCurrentTick__E                         
1001c2ad  ti_sysbios_knl_Clock_TimerProxy_getExpiredTicks__E                        
1001c0a5  ti_sysbios_knl_Clock_TimerProxy_getMaxTicks__E                            
1001c2b1  ti_sysbios_knl_Clock_TimerProxy_getPeriod__E                              
1001c0b5  ti_sysbios_knl_Clock_TimerProxy_setNextTick__E                            
1001b795  ti_sysbios_knl_Clock_TimerProxy_startup__E                                
UNDEFED   ti_sysbios_knl_Clock_TimerProxy_startup__E__mangled__                     
1001ba21  ti_sysbios_knl_Clock_addI__E                                              
1001b579  ti_sysbios_knl_Clock_construct                                            
1001b3ed  ti_sysbios_knl_Clock_create                                               
1001c2b5  ti_sysbios_knl_Clock_delete                                               
1001c2b9  ti_sysbios_knl_Clock_destruct                                             
000076c9  ti_sysbios_knl_Clock_doTick__I                                            
00006fe1  ti_sysbios_knl_Clock_getTicksUntilInterrupt__E                            
1001b6d9  ti_sysbios_knl_Clock_getTicks__E                                          
1001c191  ti_sysbios_knl_Clock_getTimerHandle__E                                    
1001be67  ti_sysbios_knl_Clock_logTick__E                                           
1001c2bd  ti_sysbios_knl_Clock_removeI__E                                           
1001bebd  ti_sysbios_knl_Clock_scheduleNextTick__E                                  
000004c8  ti_sysbios_knl_Clock_serviceMargin__C                                     
1001c2c1  ti_sysbios_knl_Clock_setTimeout__E                                        
1001a719  ti_sysbios_knl_Clock_startI__E                                            
1001bfe3  ti_sysbios_knl_Clock_start__E                                             
0000727d  ti_sysbios_knl_Clock_stop__E                                              
00000510  ti_sysbios_knl_Clock_tickMode__C                                          
00007e24  ti_sysbios_knl_Clock_tickPeriod__C                                        
00007e28  ti_sysbios_knl_Clock_triggerClock__C                                      
00005c5f  ti_sysbios_knl_Clock_triggerFunc__I                                       
1001a80d  ti_sysbios_knl_Clock_walkQueueDynamic__E                                  
00004fd5  ti_sysbios_knl_Clock_workFuncDynamic__E                                   
1001a885  ti_sysbios_knl_Clock_workFunc__E                                          
00007e2c  ti_sysbios_knl_Idle_funcList__A                                           
00000478  ti_sysbios_knl_Idle_funcList__C                                           
1001c20b  ti_sysbios_knl_Idle_loop__E                                               
1001bd09  ti_sysbios_knl_Idle_run__E                                                
000005d4  ti_sysbios_knl_Mailbox_Instance_State_dataQue__O                          
000005d8  ti_sysbios_knl_Mailbox_Instance_State_dataSem__O                          
000005dc  ti_sysbios_knl_Mailbox_Instance_State_freeQue__O                          
000005e0  ti_sysbios_knl_Mailbox_Instance_State_freeSem__O                          
1001a9dd  ti_sysbios_knl_Mailbox_Instance_finalize__E                               
1001a001  ti_sysbios_knl_Mailbox_Instance_init__E                                   
20001964  ti_sysbios_knl_Mailbox_Module__root__V                                    
1001b251  ti_sysbios_knl_Mailbox_Module_startup__E                                  
00000390  ti_sysbios_knl_Mailbox_Object__DESC__C                                    
0000013c  ti_sysbios_knl_Mailbox_Object__PARAMS__C                                  
000004cc  ti_sysbios_knl_Mailbox_Object__count__C                                   
1001bd29  ti_sysbios_knl_Mailbox_Object__delete__S                                  
1001bed9  ti_sysbios_knl_Mailbox_Object__destruct__S                                
1001b89d  ti_sysbios_knl_Mailbox_Object__get__S                                     
000004d0  ti_sysbios_knl_Mailbox_Object__table__C                                   
1001c19d  ti_sysbios_knl_Mailbox_Params__init__S                                    
1001af81  ti_sysbios_knl_Mailbox_construct                                          
1001abdd  ti_sysbios_knl_Mailbox_create                                             
1001c2c5  ti_sysbios_knl_Mailbox_delete                                             
1001c2c9  ti_sysbios_knl_Mailbox_destruct                                           
1001a8fd  ti_sysbios_knl_Mailbox_pend__E                                            
1001b8c9  ti_sysbios_knl_Mailbox_postInit__I                                        
1001a591  ti_sysbios_knl_Mailbox_post__E                                            
1001c22b  ti_sysbios_knl_Queue_Instance_init__E                                     
2000196c  ti_sysbios_knl_Queue_Module__root__V                                      
000003b0  ti_sysbios_knl_Queue_Object__DESC__C                                      
00000460  ti_sysbios_knl_Queue_Object__PARAMS__C                                    
000004d4  ti_sysbios_knl_Queue_Object__count__C                                     
1001bd49  ti_sysbios_knl_Queue_Object__delete__S                                    
1001bef5  ti_sysbios_knl_Queue_Object__destruct__S                                  
1001bd69  ti_sysbios_knl_Queue_Object__get__S                                       
000004d8  ti_sysbios_knl_Queue_Object__table__C                                     
1001b8f5  ti_sysbios_knl_Queue_construct                                            
1001b921  ti_sysbios_knl_Queue_create                                               
1001c2cd  ti_sysbios_knl_Queue_delete                                               
1001c1a9  ti_sysbios_knl_Queue_dequeue__E                                           
1001c2d1  ti_sysbios_knl_Queue_destruct                                             
1001c231  ti_sysbios_knl_Queue_elemClear__E                                         
1001c113  ti_sysbios_knl_Queue_empty__E                                             
1001c1b5  ti_sysbios_knl_Queue_enqueue__E                                           
1001bf11  ti_sysbios_knl_Queue_get__E                                               
1001c2d5  ti_sysbios_knl_Queue_head__E                                              
1001c2d9  ti_sysbios_knl_Queue_next__E                                              
1001bf2d  ti_sysbios_knl_Queue_put__E                                               
1001c121  ti_sysbios_knl_Queue_remove__E                                            
000005e4  ti_sysbios_knl_Semaphore_Instance_State_pendQ__O                          
1001c0c5  ti_sysbios_knl_Semaphore_Instance_finalize__E                             
1001bb01  ti_sysbios_knl_Semaphore_Instance_init__E                                 
20001974  ti_sysbios_knl_Semaphore_Module__root__V                                  
000003d0  ti_sysbios_knl_Semaphore_Object__DESC__C                                  
000002ac  ti_sysbios_knl_Semaphore_Object__PARAMS__C                                
1001bb25  ti_sysbios_knl_Semaphore_Object__delete__S                                
1001bd89  ti_sysbios_knl_Semaphore_Object__destruct__S                              
1001c1c1  ti_sysbios_knl_Semaphore_Params__init__S                                  
1001b709  ti_sysbios_knl_Semaphore_construct                                        
1001b5ad  ti_sysbios_knl_Semaphore_create                                           
1001c2dd  ti_sysbios_knl_Semaphore_delete                                           
1001c2e1  ti_sysbios_knl_Semaphore_destruct                                         
1001b94d  ti_sysbios_knl_Semaphore_pendTimeout__I                                   
1001a0cd  ti_sysbios_knl_Semaphore_pend__E                                          
1001ac41  ti_sysbios_knl_Semaphore_post__E                                          
1001bf9b  ti_sysbios_knl_Swi_Instance_finalize__E                                   
1001aca5  ti_sysbios_knl_Swi_Instance_init__E                                       
20001840  ti_sysbios_knl_Swi_Module_State_0_readyQ__A                               
2000197c  ti_sysbios_knl_Swi_Module__root__V                                        
200001c8  ti_sysbios_knl_Swi_Module__state__V                                       
1001c237  ti_sysbios_knl_Swi_Module_startup__E                                      
000003f0  ti_sysbios_knl_Swi_Object__DESC__C                                        
000001f4  ti_sysbios_knl_Swi_Object__PARAMS__C                                      
000004dc  ti_sysbios_knl_Swi_Object__count__C                                       
1001bda9  ti_sysbios_knl_Swi_Object__delete__S                                      
1001bf49  ti_sysbios_knl_Swi_Object__destruct__S                                    
1001b979  ti_sysbios_knl_Swi_Object__get__S                                         
000004e0  ti_sysbios_knl_Swi_Object__table__C                                       
20001870  ti_sysbios_knl_Swi_Object__table__V                                       
1001c1cd  ti_sysbios_knl_Swi_Params__init__S                                        
1001b085  ti_sysbios_knl_Swi_construct                                              
1001ad05  ti_sysbios_knl_Swi_create                                                 
1001c2e5  ti_sysbios_knl_Swi_delete                                                 
1001c2e9  ti_sysbios_knl_Swi_destruct                                               
1001c0d5  ti_sysbios_knl_Swi_disable__E                                             
1001c0e5  ti_sysbios_knl_Swi_enabled__E                                             
000077e1  ti_sysbios_knl_Swi_getTrigger__E                                          
000004e4  ti_sysbios_knl_Swi_numPriorities__C                                       
000075dd  ti_sysbios_knl_Swi_or__E                                                  
1001c2ed  ti_sysbios_knl_Swi_postInit__I                                            
1001b321  ti_sysbios_knl_Swi_post__E                                                
1001ad61  ti_sysbios_knl_Swi_restoreHwi__E                                          
1001b5e1  ti_sysbios_knl_Swi_restore__E                                             
1001b0d5  ti_sysbios_knl_Swi_runLoop__I                                             
1001afd9  ti_sysbios_knl_Swi_run__I                                                 
1001b031  ti_sysbios_knl_Swi_schedule__I                                            
1001c23d  ti_sysbios_knl_Swi_startup__E                                             
20000e08  ti_sysbios_knl_Task_Instance_State_0_stack__A                             
1001a4fd  ti_sysbios_knl_Task_Instance_finalize__E                                  
1001a25d  ti_sysbios_knl_Task_Instance_init__E                                      
200019b0  ti_sysbios_knl_Task_Module_State_0_idleTask__A                            
200018c0  ti_sysbios_knl_Task_Module_State_0_readyQ__A                              
000005e8  ti_sysbios_knl_Task_Module_State_inactiveQ__O                             
20001984  ti_sysbios_knl_Task_Module__root__V                                       
20000100  ti_sysbios_knl_Task_Module__state__V                                      
1001adbd  ti_sysbios_knl_Task_Module_startup__E                                     
00000410  ti_sysbios_knl_Task_Object__DESC__C                                       
00000100  ti_sysbios_knl_Task_Object__PARAMS__C                                     
000004e8  ti_sysbios_knl_Task_Object__count__C                                      
1001bdc9  ti_sysbios_knl_Task_Object__delete__S                                     
1001bf65  ti_sysbios_knl_Task_Object__destruct__S                                   
1001bde9  ti_sysbios_knl_Task_Object__get__S                                        
000004ec  ti_sysbios_knl_Task_Object__table__C                                      
20001770  ti_sysbios_knl_Task_Object__table__V                                      
1001c1d9  ti_sysbios_knl_Task_Params__init__S                                       
1001c2f1  ti_sysbios_knl_Task_SupportProxy_Module__startupDone__S                   
UNDEFED   ti_sysbios_knl_Task_SupportProxy_Module__startupDone__S__mangled__        
1001c2f5  ti_sysbios_knl_Task_SupportProxy_getStackAlignment__E                     
UNDEFED   ti_sysbios_knl_Task_SupportProxy_getStackAlignment__E__mangled__          
1001c2f9  ti_sysbios_knl_Task_SupportProxy_start__E                                 
UNDEFED   ti_sysbios_knl_Task_SupportProxy_start__E__mangled__                      
1001c2fd  ti_sysbios_knl_Task_SupportProxy_swap__E                                  
UNDEFED   ti_sysbios_knl_Task_SupportProxy_swap__E__mangled__                       
000004f0  ti_sysbios_knl_Task_allBlockedFunc__C                                     
1001b365  ti_sysbios_knl_Task_allBlockedFunction__I                                 
1001b615  ti_sysbios_knl_Task_blockI__E                                             
1001b125  ti_sysbios_knl_Task_construct                                             
1001ae19  ti_sysbios_knl_Task_create                                                
000004f4  ti_sysbios_knl_Task_defaultStackHeap__C                                   
000004f8  ti_sysbios_knl_Task_defaultStackSize__C                                   
1001c301  ti_sysbios_knl_Task_delete                                                
1001c305  ti_sysbios_knl_Task_destruct                                              
1001c0f5  ti_sysbios_knl_Task_disable__E                                            
1001c243  ti_sysbios_knl_Task_enable__E                                             
1001be09  ti_sysbios_knl_Task_enter__I                                              
1001b429  ti_sysbios_knl_Task_exit__E                                               
0000050e  ti_sysbios_knl_Task_initStackFlag__C                                      
000004fc  ti_sysbios_knl_Task_numConstructedTasks__C                                
1001a615  ti_sysbios_knl_Task_postInit__I                                           
1001b739  ti_sysbios_knl_Task_processVitalTaskFlag__I                               
1001be29  ti_sysbios_knl_Task_restoreHwi__E                                         
1001ba49  ti_sysbios_knl_Task_restore__E                                            
1001b175  ti_sysbios_knl_Task_schedule__I                                           
1001c1e5  ti_sysbios_knl_Task_self__E                                               
1001bf81  ti_sysbios_knl_Task_sleepTimeout__I                                       
1001a96d  ti_sysbios_knl_Task_sleep__E                                              
1001ae75  ti_sysbios_knl_Task_startCore__E                                          
1001c309  ti_sysbios_knl_Task_startup__E                                            
1001ca71  ti_sysbios_knl_Task_swapReturn                                            
1001b9a5  ti_sysbios_knl_Task_unblockI__E                                           
1001bfb5  ti_sysbios_knl_Task_unblock__E                                            
1001b3a9  ti_sysbios_knl_Task_yield__E                                              
00000590  ti_sysbios_rom_ROM_AONRTCChannelEnable                                    
00000594  ti_sysbios_rom_ROM_AONRTCCompareValueSet                                  
00000598  ti_sysbios_rom_ROM_AONRTCCurrentCompareValueGet                           
0000059c  ti_sysbios_rom_ROM_AONRTCEventClear                                       
000005a0  ti_sysbios_rom_ROM_ti_sysbios_family_arm_cc26xx_Timer_getCount64__E       
000005a4  ti_sysbios_rom_ROM_ti_sysbios_family_arm_cc26xx_Timer_getCurrentTick__E   
000005a8  ti_sysbios_rom_ROM_ti_sysbios_family_arm_cc26xx_Timer_getMaxTicks__E      
000005ac  ti_sysbios_rom_ROM_ti_sysbios_family_arm_cc26xx_Timer_initDevice__I       
000005b0  ti_sysbios_rom_ROM_ti_sysbios_family_arm_cc26xx_Timer_setNextTick__E      
000005b4  ti_sysbios_rom_ROM_ti_sysbios_family_arm_cc26xx_Timer_setThreshold__I     
000005b8  ti_sysbios_rom_ROM_ti_sysbios_family_arm_cc26xx_Timer_start__E            
000005bc  ti_sysbios_rom_ROM_ti_sysbios_family_arm_cc26xx_TimestampProvider_get32__E
000005c0  ti_sysbios_rom_ROM_xdc_runtime_Startup_getState__I                        
000005c4  ti_sysbios_rom_ROM_xdc_runtime_System_SupportProxy_abort__E               
000005c8  ti_sysbios_rom_ROM_xdc_runtime_System_SupportProxy_exit__E                
00006cef  ti_sysbios_rom_cortexm_cc26xx_CC26xx_badRomRevision__E                    
000075f5  ti_sysbios_rom_cortexm_cc26xx_CC26xx_checkRevision__E                     
1001ca9b  ti_sysbios_rom_cortexm_cc26xx_CC26xx_getRevision__E                       
00007db0  uartCC26XXHWAttrs                                                         
20001128  uartCC26XXObjects                                                         
00000524  xdc_runtime_Assert_E_assertFailed__C                                      
1001c5a9  xdc_runtime_Assert_raise__I                                               
1001c6ed  xdc_runtime_Core_assignLabel__I                                           
1001c5f1  xdc_runtime_Core_assignParams__I                                          
1001c639  xdc_runtime_Core_constructObject__I                                       
1001c405  xdc_runtime_Core_createObject__I                                          
1001c4f9  xdc_runtime_Core_deleteObject__I                                          
1001c7a1  xdc_runtime_Core_destructObject__I                                        
00000528  xdc_runtime_Error_E_memory__C                                             
1001c7b9  xdc_runtime_Error_check__E                                                
1001c841  xdc_runtime_Error_init__E                                                 
0000052c  xdc_runtime_Error_policyFxn__C                                            
1001c487  xdc_runtime_Error_policySpin__E                                           
0000058c  xdc_runtime_Error_policy__C                                               
1001c769  xdc_runtime_Error_raiseX__E                                               
1001c885  xdc_runtime_Gate_enterSystem__E                                           
1001c879  xdc_runtime_Gate_leaveSystem__E                                           
00000530  xdc_runtime_IGateProvider_Interface__BASE__C                              
00000534  xdc_runtime_IHeap_Interface__BASE__C                                      
00000538  xdc_runtime_IModule_Interface__BASE__C                                    
UNDEFED   xdc_runtime_Main_Module_GateProxy_Handle__label__S                        
UNDEFED   xdc_runtime_Main_Module_GateProxy_Object__delete__S                       
UNDEFED   xdc_runtime_Main_Module_GateProxy_query__E                                
0000053c  xdc_runtime_Main_Module__diagsEnabled__C                                  
00000540  xdc_runtime_Main_Module__diagsIncluded__C                                 
00000544  xdc_runtime_Main_Module__diagsMask__C                                     
00000584  xdc_runtime_Main_Module__id__C                                            
1001bc89  xdc_runtime_Memory_HeapProxy_Handle__label__S                             
UNDEFED   xdc_runtime_Memory_HeapProxy_Handle__label__S__mangled__                  
1001bca9  xdc_runtime_Memory_HeapProxy_Object__delete__S                            
UNDEFED   xdc_runtime_Memory_HeapProxy_Object__delete__S__mangled__                 
1001c889  xdc_runtime_Memory_HeapProxy_alloc__E                                     
1001c88d  xdc_runtime_Memory_HeapProxy_free__E                                      
00000586  xdc_runtime_Memory_Module__id__C                                          
20000200  xdc_runtime_Memory_Module__state__V                                       
1001c489  xdc_runtime_Memory_alloc__E                                               
1001c84d  xdc_runtime_Memory_calloc__E                                              
00000548  xdc_runtime_Memory_defaultHeapInstance__C                                 
1001c801  xdc_runtime_Memory_free__E                                                
1001c859  xdc_runtime_Memory_getMaxDefaultTypeAlign__E                              
1001c785  xdc_runtime_Memory_valloc__E                                              
2000198c  xdc_runtime_Registry_Module__state__V                                     
0000729d  xdc_runtime_Registry_findById__E                                          
200001f0  xdc_runtime_Startup_Module__state__V                                      
00000001  xdc_runtime_Startup__EXECFXN__C                                           
00000001  xdc_runtime_Startup__RESETFXN__C                                          
0000054c  xdc_runtime_Startup_execImpl__C                                           
1001c559  xdc_runtime_Startup_exec__E                                               
000076dd  xdc_runtime_Startup_exec__I                                               
00007e10  xdc_runtime_Startup_firstFxns__A                                          
00000514  xdc_runtime_Startup_firstFxns__C                                          
00006155  xdc_runtime_Startup_getState__I                                           
0000051c  xdc_runtime_Startup_lastFxns__C                                           
00000550  xdc_runtime_Startup_maxPasses__C                                          
000077ed  xdc_runtime_Startup_reset__I                                              
000077f9  xdc_runtime_Startup_rtsDone__E                                            
00007ddc  xdc_runtime_Startup_sfxnRts__A                                            
00000554  xdc_runtime_Startup_sfxnRts__C                                            
00007cc8  xdc_runtime_Startup_sfxnTab__A                                            
00000558  xdc_runtime_Startup_sfxnTab__C                                            
0000055c  xdc_runtime_Startup_startModsFxn__C                                       
1001c30d  xdc_runtime_Startup_startMods__I                                          
00000560  xdc_runtime_SysCallback_abortFxn__C                                       
1001c811  xdc_runtime_SysCallback_abort__E                                          
00006f2f  xdc_runtime_SysCallback_defaultAbort                                      
00007037  xdc_runtime_SysCallback_defaultExit                                       
00000564  xdc_runtime_SysCallback_exitFxn__C                                        
1001c821  xdc_runtime_SysCallback_exit__E                                           
20001464  xdc_runtime_SysMin_Module_State_0_outbuf__A                               
20001910  xdc_runtime_SysMin_Module__state__V                                       
000072bd  xdc_runtime_SysMin_Module_startup__E                                      
00006ea1  xdc_runtime_SysMin_abort__E                                               
00007e30  xdc_runtime_SysMin_bufSize__C                                             
000073c1  xdc_runtime_SysMin_exit__E                                                
00007b32  xdc_runtime_SysMin_flushAtExit__C                                         
0000694d  xdc_runtime_SysMin_flush__E                                               
00007e34  xdc_runtime_SysMin_outputFunc__C                                          
000071d9  xdc_runtime_SysMin_output__I                                              
00006c1d  xdc_runtime_SysMin_putch__E                                               
00007741  xdc_runtime_SysMin_ready__E                                               
1001bbe9  xdc_runtime_System_Module_GateProxy_Handle__label__S                      
UNDEFED   xdc_runtime_System_Module_GateProxy_Handle__label__S__mangled__           
1001bc09  xdc_runtime_System_Module_GateProxy_Object__delete__S                     
UNDEFED   xdc_runtime_System_Module_GateProxy_Object__delete__S__mangled__          
1001c891  xdc_runtime_System_Module_GateProxy_enter__E                              
1001c895  xdc_runtime_System_Module_GateProxy_leave__E                              
1001c269  xdc_runtime_System_Module_GateProxy_query__E                              
UNDEFED   xdc_runtime_System_Module_GateProxy_query__E__mangled__                   
20001994  xdc_runtime_System_Module_State_0_atexitHandlers__A                       
200001f8  xdc_runtime_System_Module__state__V                                       
1001c87f  xdc_runtime_System_Module_startup__E                                      
00006ea1  xdc_runtime_System_SupportProxy_abort__E                                  
000073c1  xdc_runtime_System_SupportProxy_exit__E                                   
0000694d  xdc_runtime_System_SupportProxy_flush__E                                  
00006c1d  xdc_runtime_System_SupportProxy_putch__E                                  
00007741  xdc_runtime_System_SupportProxy_ready__E                                  
00000568  xdc_runtime_System_abortFxn__C                                            
1001c899  xdc_runtime_System_abortSpin__E                                           
1001c749  xdc_runtime_System_abort__E                                               
1001c681  xdc_runtime_System_atexit__E                                              
0000208d  xdc_runtime_System_doPrint__I                                             
0000056c  xdc_runtime_System_exitFxn__C                                             
1001c89b  xdc_runtime_System_exitSpin__E                                            
1001c7d1  xdc_runtime_System_exit__E                                                
00007e38  xdc_runtime_System_extendFxn__C                                           
00005aad  xdc_runtime_System_formatNum__I                                           
00000570  xdc_runtime_System_maxAtexitHandlers__C                                   
00002d09  xdc_runtime_System_printfExtend__I                                        
00007411  xdc_runtime_System_printf__E                                              
000078a3  xdc_runtime_System_printf_va__F                                           
1001c6b9  xdc_runtime_System_processAtExit__E                                       
0000700d  xdc_runtime_System_putchar__I                                             
0000742b  xdc_runtime_System_snprintf__E                                            
000078a7  xdc_runtime_System_snprintf_va__F                                         
000071b5  xdc_runtime_System_vprintf__E                                             
00007751  xdc_runtime_System_vsnprintf__E                                           
00000588  xdc_runtime_Text_charCnt__C                                               
00007e44  xdc_runtime_Text_charTab__A                                               
00000574  xdc_runtime_Text_charTab__C                                               
1001c71d  xdc_runtime_Text_cordText__E                                              
0000058a  xdc_runtime_Text_isLoaded__C                                              
00000578  xdc_runtime_Text_nameEmpty__C                                             
0000057c  xdc_runtime_Text_nameStatic__C                                            
00000580  xdc_runtime_Text_nameUnknown__C                                           
00006ed1  xdc_runtime_Text_printVisFxn__I                                           
000061b1  xdc_runtime_Text_putLab__E                                                
00005195  xdc_runtime_Text_putMod__E                                                
00004f39  xdc_runtime_Text_putSite__E                                               
00007e40  xdc_runtime_Text_registryModsLastId__C                                    
1001c7e9  xdc_runtime_Text_ropeText__E                                              
00007e42  xdc_runtime_Text_unnamedModsLastId__C                                     
00007e3c  xdc_runtime_Text_visitRopeFxn__C                                          
00007857  xdc_runtime_Text_visitRope__I                                             
00006991  xdc_runtime_Text_xprintf__I                                               
1001c831  xdc_runtime_Timestamp_SupportProxy_get32__E                               
0000778b  xdc_runtime_Timestamp_SupportProxy_get32__E__mangled__                    
1001b9d1  xdc_runtime_Timestamp_SupportProxy_get64__E                               
UNDEFED   xdc_runtime_Timestamp_SupportProxy_get64__E__mangled__                    
1001c12f  xdc_runtime_Timestamp_SupportProxy_getFreq__E                             
UNDEFED   xdc_runtime_Timestamp_SupportProxy_getFreq__E__mangled__                  
1001c831  xdc_runtime_Timestamp_get32__E                                            
UNDEFED   xdc_runtime_Timestamp_get32__E                                            
1001b9d1  xdc_runtime_Timestamp_get64__E                                            
UNDEFED   xdc_runtime_Timestamp_get64__E                                            
1001c12f  xdc_runtime_Timestamp_getFreq__E                                          
UNDEFED   xdc_runtime_Timestamp_getFreq__E                                          


GLOBAL SYMBOLS: SORTED BY Symbol Address 

address   name                                                                      
-------   ----                                                                      
00000000  __ASM__                                                                   
00000000  ti_sysbios_family_arm_m3_Hwi_resetVectors                                 
00000001  xdc_runtime_Startup__EXECFXN__C                                           
00000001  xdc_runtime_Startup__RESETFXN__C                                          
00000070  __ISA__                                                                   
00000082  __PLAT__                                                                  
000000a9  __TARG__                                                                  
000000ce  __TRDR__                                                                  
00000100  ti_sysbios_knl_Task_Object__PARAMS__C                                     
0000013c  ti_sysbios_knl_Mailbox_Object__PARAMS__C                                  
00000170  ti_sysbios_family_arm_m3_Hwi_Object__PARAMS__C                            
000001a0  ti_sysbios_hal_Hwi_Object__PARAMS__C                                      
000001cc  ti_sysbios_heaps_HeapMem_Module__FXNS__C                                  
000001f4  ti_sysbios_knl_Swi_Object__PARAMS__C                                      
0000021c  ti_sysbios_gates_GateHwi_Module__FXNS__C                                  
00000240  ti_sysbios_gates_GateMutex_Module__FXNS__C                                
00000264  ti_sysbios_heaps_HeapMem_Object__PARAMS__C                                
00000288  ti_sysbios_knl_Clock_Object__PARAMS__C                                    
000002ac  ti_sysbios_knl_Semaphore_Object__PARAMS__C                                
000002d0  ti_sysbios_family_arm_m3_Hwi_Object__DESC__C                              
000002f0  ti_sysbios_gates_GateHwi_Object__DESC__C                                  
00000300  __STACK_SIZE                                                              
00000310  ti_sysbios_gates_GateMutex_Object__DESC__C                                
00000330  ti_sysbios_hal_Hwi_Object__DESC__C                                        
00000350  ti_sysbios_heaps_HeapMem_Object__DESC__C                                  
00000370  ti_sysbios_knl_Clock_Object__DESC__C                                      
00000390  ti_sysbios_knl_Mailbox_Object__DESC__C                                    
000003b0  ti_sysbios_knl_Queue_Object__DESC__C                                      
000003d0  ti_sysbios_knl_Semaphore_Object__DESC__C                                  
000003f0  ti_sysbios_knl_Swi_Object__DESC__C                                        
00000410  ti_sysbios_knl_Task_Object__DESC__C                                       
00000430  ti_sysbios_gates_GateHwi_Object__PARAMS__C                                
00000448  ti_sysbios_gates_GateMutex_Object__PARAMS__C                              
00000460  ti_sysbios_knl_Queue_Object__PARAMS__C                                    
00000478  ti_sysbios_knl_Idle_funcList__C                                           
00000484  ti_sysbios_family_arm_cc26xx_Timer_startupNeeded__C                       
00000488  ti_sysbios_family_arm_m3_Hwi_E_alreadyDefined__C                          
0000048c  ti_sysbios_family_arm_m3_Hwi_E_hwiLimitExceeded__C                        
00000490  ti_sysbios_family_arm_m3_Hwi_NUM_INTERRUPTS__C                            
00000494  ti_sysbios_family_arm_m3_Hwi_Object__count__C                             
00000498  ti_sysbios_family_arm_m3_Hwi_Object__table__C                             
0000049c  ti_sysbios_family_arm_m3_Hwi_ccr__C                                       
000004a0  ti_sysbios_family_arm_m3_Hwi_excHandlerFunc__C                            
000004a4  ti_sysbios_family_arm_m3_Hwi_nullIsrFunc__C                               
000004a8  ti_sysbios_family_arm_m3_Hwi_numSparseInterrupts__C                       
000004ac  ti_sysbios_family_arm_m3_Hwi_priGroup__C                                  
000004b0  ti_sysbios_family_arm_m3_TaskSupport_stackAlignment__C                    
000004b4  ti_sysbios_heaps_HeapMem_E_memory__C                                      
000004b8  ti_sysbios_heaps_HeapMem_Module__gateObj__C                               
000004bc  ti_sysbios_heaps_HeapMem_Object__count__C                                 
000004c0  ti_sysbios_heaps_HeapMem_Object__table__C                                 
000004c4  ti_sysbios_heaps_HeapMem_reqAlign__C                                      
000004c8  ti_sysbios_knl_Clock_serviceMargin__C                                     
000004cc  ti_sysbios_knl_Mailbox_Object__count__C                                   
000004d0  ti_sysbios_knl_Mailbox_Object__table__C                                   
000004d4  ti_sysbios_knl_Queue_Object__count__C                                     
000004d8  ti_sysbios_knl_Queue_Object__table__C                                     
000004dc  ti_sysbios_knl_Swi_Object__count__C                                       
000004e0  ti_sysbios_knl_Swi_Object__table__C                                       
000004e4  ti_sysbios_knl_Swi_numPriorities__C                                       
000004e8  ti_sysbios_knl_Task_Object__count__C                                      
000004ec  ti_sysbios_knl_Task_Object__table__C                                      
000004f0  ti_sysbios_knl_Task_allBlockedFunc__C                                     
000004f4  ti_sysbios_knl_Task_defaultStackHeap__C                                   
000004f8  ti_sysbios_knl_Task_defaultStackSize__C                                   
000004fc  ti_sysbios_knl_Task_numConstructedTasks__C                                
00000502  ti_sysbios_family_arm_cc26xx_Timer_Module__id__C                          
00000504  ti_sysbios_family_arm_cc26xx_TimestampProvider_useClockTimer__C           
00000506  ti_sysbios_family_arm_m3_Hwi_Module__id__C                                
00000508  ti_sysbios_gates_GateHwi_Module__id__C                                    
0000050a  ti_sysbios_gates_GateMutex_Module__id__C                                  
0000050c  ti_sysbios_heaps_HeapMem_Module__id__C                                    
0000050e  ti_sysbios_knl_Task_initStackFlag__C                                      
00000510  ti_sysbios_knl_Clock_tickMode__C                                          
00000514  xdc_runtime_Startup_firstFxns__C                                          
0000051c  xdc_runtime_Startup_lastFxns__C                                           
00000524  xdc_runtime_Assert_E_assertFailed__C                                      
00000528  xdc_runtime_Error_E_memory__C                                             
0000052c  xdc_runtime_Error_policyFxn__C                                            
00000530  xdc_runtime_IGateProvider_Interface__BASE__C                              
00000534  xdc_runtime_IHeap_Interface__BASE__C                                      
00000538  xdc_runtime_IModule_Interface__BASE__C                                    
0000053c  xdc_runtime_Main_Module__diagsEnabled__C                                  
00000540  xdc_runtime_Main_Module__diagsIncluded__C                                 
00000544  xdc_runtime_Main_Module__diagsMask__C                                     
00000548  xdc_runtime_Memory_defaultHeapInstance__C                                 
0000054c  xdc_runtime_Startup_execImpl__C                                           
00000550  xdc_runtime_Startup_maxPasses__C                                          
00000554  xdc_runtime_Startup_sfxnRts__C                                            
00000558  xdc_runtime_Startup_sfxnTab__C                                            
0000055c  xdc_runtime_Startup_startModsFxn__C                                       
00000560  xdc_runtime_SysCallback_abortFxn__C                                       
00000564  xdc_runtime_SysCallback_exitFxn__C                                        
00000568  xdc_runtime_System_abortFxn__C                                            
0000056c  xdc_runtime_System_exitFxn__C                                             
00000570  xdc_runtime_System_maxAtexitHandlers__C                                   
00000574  xdc_runtime_Text_charTab__C                                               
00000578  xdc_runtime_Text_nameEmpty__C                                             
0000057c  xdc_runtime_Text_nameStatic__C                                            
00000580  xdc_runtime_Text_nameUnknown__C                                           
00000584  xdc_runtime_Main_Module__id__C                                            
00000586  xdc_runtime_Memory_Module__id__C                                          
00000588  xdc_runtime_Text_charCnt__C                                               
0000058a  xdc_runtime_Text_isLoaded__C                                              
0000058c  xdc_runtime_Error_policy__C                                               
00000590  ti_sysbios_rom_ROM_AONRTCChannelEnable                                    
00000594  ti_sysbios_rom_ROM_AONRTCCompareValueSet                                  
00000598  ti_sysbios_rom_ROM_AONRTCCurrentCompareValueGet                           
0000059c  ti_sysbios_rom_ROM_AONRTCEventClear                                       
000005a0  ti_sysbios_rom_ROM_ti_sysbios_family_arm_cc26xx_Timer_getCount64__E       
000005a4  ti_sysbios_rom_ROM_ti_sysbios_family_arm_cc26xx_Timer_getCurrentTick__E   
000005a8  ti_sysbios_rom_ROM_ti_sysbios_family_arm_cc26xx_Timer_getMaxTicks__E      
000005ac  ti_sysbios_rom_ROM_ti_sysbios_family_arm_cc26xx_Timer_initDevice__I       
000005b0  ti_sysbios_rom_ROM_ti_sysbios_family_arm_cc26xx_Timer_setNextTick__E      
000005b4  ti_sysbios_rom_ROM_ti_sysbios_family_arm_cc26xx_Timer_setThreshold__I     
000005b8  ti_sysbios_rom_ROM_ti_sysbios_family_arm_cc26xx_Timer_start__E            
000005bc  ti_sysbios_rom_ROM_ti_sysbios_family_arm_cc26xx_TimestampProvider_get32__E
000005c0  ti_sysbios_rom_ROM_xdc_runtime_Startup_getState__I                        
000005c4  ti_sysbios_rom_ROM_xdc_runtime_System_SupportProxy_abort__E               
000005c8  ti_sysbios_rom_ROM_xdc_runtime_System_SupportProxy_exit__E                
000005cc  ti_sysbios_gates_GateMutex_Instance_State_sem__O                          
000005d0  ti_sysbios_knl_Clock_Module_State_clockQ__O                               
000005d4  ti_sysbios_knl_Mailbox_Instance_State_dataQue__O                          
000005d8  ti_sysbios_knl_Mailbox_Instance_State_dataSem__O                          
000005dc  ti_sysbios_knl_Mailbox_Instance_State_freeQue__O                          
000005e0  ti_sysbios_knl_Mailbox_Instance_State_freeSem__O                          
000005e4  ti_sysbios_knl_Semaphore_Instance_State_pendQ__O                          
000005e8  ti_sysbios_knl_Task_Module_State_inactiveQ__O                             
000013d7  __TI_printfi                                                              
000016dd  pow                                                                       
000016dd  powl                                                                      
0000208d  xdc_runtime_System_doPrint__I                                             
000023c5  HOSTwrite                                                                 
00002411  HOSTunlink                                                                
00002449  HOSTtime64                                                                
00002493  HOSTtime                                                                  
000024cd  HOSTrename                                                                
0000252b  HOSTread                                                                  
00002577  HOSTopen                                                                  
000025c9  HOSTlseek                                                                 
00002625  HOSTgetenv                                                                
00002663  HOSTclose                                                                 
0000269b  HOSTclock                                                                 
000026e9  Power_sleep                                                               
00002911  NOROM_SysCtrlSetRechargeBeforePowerDown                                   
00002b15  __aeabi_uldivmod                                                          
00002d09  xdc_runtime_System_printfExtend__I                                        
00002ee5  labTaskFxn                                                                
00003289  PIN_init                                                                  
0000344d  __aeabi_dsub                                                              
00003457  __aeabi_dadd                                                              
00003603  DisplayUart_clear                                                         
00003605  UARTCC26XX_open                                                           
00003795  PowerCC26XX_doCalibrate                                                   
00003919  sqrt                                                                      
00003919  sqrtl                                                                     
00003a9d  main                                                                      
00003c0d  __aeabi_ddiv                                                              
00003d43  DisplayUart_clearLines                                                    
00003d45  NOROM_SetupAfterColdResetWakeupFromShutDownCfg3                           
00003e75  opt3001_get_data                                                          
00003f99  Power_init                                                                
000040b5  UARTCC26XX_write                                                          
000041b1  __aeabi_dmul                                                              
000042ad  I2CCC26XX_open                                                            
000043a5  UARTCC26XX_hwiIntFxn                                                      
00004579  NOROM_SetupAfterColdResetWakeupFromShutDownCfg2                           
0000465d  Power_releaseDependency                                                   
00004731  Power_setDependency                                                       
00004801  ldexp                                                                     
00004801  ldexpl                                                                    
00004801  scalbn                                                                    
00004801  scalbnl                                                                   
00004a65  I2CCC26XX_transfer                                                        
00004b29  PowerCC26XX_standbyPolicy                                                 
00004be5  UARTCC26XX_read                                                           
00004d59  NOROM_SetupTrimDevice                                                     
00004d59  ti_sysbios_family_arm_cc26xx_Boot_trimDevice                              
00004dfd  __TI_auto_init                                                            
00004e9d  __aeabi_memcpy                                                            
00004e9d  __aeabi_memcpy4                                                           
00004e9d  __aeabi_memcpy8                                                           
00004e9d  memcpy                                                                    
00004f39  xdc_runtime_Text_putSite__E                                               
00004fd3  __aeabi_idiv0                                                             
00004fd5  ti_sysbios_knl_Clock_workFuncDynamic__E                                   
0000506d  PIN_open                                                                  
00005195  xdc_runtime_Text_putMod__E                                                
00005229  I2CCC26XX_cancel                                                          
00005349  opt3001_setup                                                             
000054f1  UARTCC26XX_writeCancel                                                    
0000557d  __aeabi_cdcmpeq                                                           
0000557d  __aeabi_cdcmple                                                           
00005603  __aeabi_cdrcmple                                                          
00005705  __aeabi_memclr                                                            
00005705  __aeabi_memclr4                                                           
00005705  __aeabi_memclr8                                                           
00005707  __aeabi_memset                                                            
00005707  __aeabi_memset4                                                           
00005707  __aeabi_memset8                                                           
0000570d  memset                                                                    
0000577f  ti_sysbios_BIOS_linkedWithIncorrectBootLibrary__E                         
00005781  NOROM_SetupAfterColdResetWakeupFromShutDownCfg1                           
000057f9  UARTCC26XX_close                                                          
00005871  PowerCC26XX_auxISR                                                        
000059cd  NOROM_ChipInfo_GetHwRevision                                              
00005a3d  UARTCC26XX_readCancel                                                     
00005aad  xdc_runtime_System_formatNum__I                                           
00005b1b  ti_sysbios_BIOS_nullFunc__I                                               
00005b1d  NOROM_SetupGetTrimForAmpcompCtrl                                          
00005b89  PowerCC26XX_calibrate                                                     
00005c5f  ti_sysbios_knl_Clock_triggerFunc__I                                       
00005c61  NOROM_SetupGetTrimForAnabypassValue1                                      
00005cc9  NOROM_SysCtrl_DCDC_VoltageConditionalControl                              
00005d31  __TI_writemsg                                                             
00005d5f  C$$IO$$                                                                   
00005d63  __TI_readmsg                                                              
00005d99  I2CCC26XX_close                                                           
00005e61  ti_sysbios_family_arm_cc26xx_Timer_start__E                               
00005ec5  PowerCC26XX_RCOSC_clockFunc                                               
00005f25  sprintf                                                                   
00005fe5  NOROM_OSCHF_AttemptToSwitchToXosc                                         
00006041  NOROM_SysCtrlAdjustRechargeAfterPowerDown                                 
0000609d  PIN_remove                                                                
000060f9  frexp                                                                     
000060f9  frexpl                                                                    
00006155  xdc_runtime_Startup_getState__I                                           
000061b1  xdc_runtime_Text_putLab__E                                                
0000620d  DisplayUart_put5                                                          
000062bd  PowerCC26XX_initiateCalibration                                           
00006315  UARTCC26XX_control                                                        
0000636d  opt3001_get_status                                                        
000063c3  ltoa                                                                      
0000646d  NOROM_SetupSetCacheModeAccordingToCcfgSetting                             
000064bd  DisplayUart_open                                                          
00006509  NOROM_OSCClockSourceSet                                                   
00006555  UARTCC26XX_swiIntFxn                                                      
000065a1  atoi                                                                      
000065ed  copy_in                                                                   
00006685  Display_doOpen                                                            
00006715  NOROM_ChipInfo_GetChipFamily                                              
0000675d  NOROM_DDI16BitfieldWrite                                                  
000067a5  PIN_setOutputEnable                                                       
0000687d  __aeabi_d2iz                                                              
000068c5  ResetISR                                                                  
000068c5  _c_int00                                                                  
00006909  __aeabi_d2uiz                                                             
0000694d  xdc_runtime_SysMin_flush__E                                               
0000694d  xdc_runtime_System_SupportProxy_flush__E                                  
00006991  xdc_runtime_Text_xprintf__I                                               
000069d5  NOROM_DDI16BitfieldRead                                                   
00006a15  __aeabi_uidiv                                                             
00006a15  __aeabi_uidivmod                                                          
00006a55  NOROM_OSC_HPOSCRelativeFrequencyOffsetGet                                 
00006a91  PIN_setOutputValue                                                        
00006acd  I2C_init                                                                  
00006b05  UART_init                                                                 
00006b75  __aeabi_f2d                                                               
00006bad  ti_sysbios_family_arm_cc26xx_Timer_getCurrentTick__E                      
00006c1d  xdc_runtime_SysMin_putch__E                                               
00006c1d  xdc_runtime_System_SupportProxy_putch__E                                  
00006c55  NOROM_OSCHF_SwitchToRcOscTurnOffXosc                                      
00006c89  PIN_setConfig                                                             
00006cbd  ti_sysbios_family_arm_cc26xx_Timer_setNextTick__E                         
00006cef  ti_sysbios_rom_cortexm_cc26xx_CC26xx_badRomRevision__E                    
00006cf1  I2C_open                                                                  
00006d21  NOROM_SetupSetAonRtcSubSecInc                                             
00006d51  Power_releaseConstraint                                                   
00006d81  Power_setConstraint                                                       
00006db1  UART_open                                                                 
00006de1  ti_sysbios_BIOS_atExitFunc__I                                             
00006e11  ti_sysbios_BIOS_startFunc__I                                              
00006e41  ti_sysbios_family_arm_cc26xx_Timer_initDevice__I                          
00006e71  ti_sysbios_family_arm_cc26xx_Timer_setThreshold__I                        
00006ea1  xdc_runtime_SysMin_abort__E                                               
00006ea1  xdc_runtime_System_SupportProxy_abort__E                                  
00006ed1  xdc_runtime_Text_printVisFxn__I                                           
00006f01  __aeabi_i2d                                                               
00006f2f  xdc_runtime_SysCallback_defaultAbort                                      
00006f31  NOROM_DDI32RegWrite                                                       
00006f5d  NOROM_SetupGetTrimForRadcExtCfg                                           
00006f89  PINCC26XX_setMux                                                          
00006fb5  buttonFxn                                                                 
00006fe1  ti_sysbios_knl_Clock_getTicksUntilInterrupt__E                            
0000700d  xdc_runtime_System_putchar__I                                             
00007037  xdc_runtime_SysCallback_defaultExit                                       
00007039  NOROM_AONBatMonTemperatureGetDegC                                         
00007061  Power_registerNotify                                                      
00007089  SafeHapiVoid                                                              
000070b1  ti_sysbios_family_arm_cc26xx_Timer_getMaxTicks__E                         
000070d9  Display_doPut5                                                            
000070ff  List_put                                                                  
00007125  PINCC26XX_getPinCount                                                     
0000716d  ti_sysbios_BIOS_registerRTSLock__I                                        
00007191  ti_sysbios_BIOS_removeRTSLock__I                                          
000071b5  xdc_runtime_System_vprintf__E                                             
000071d9  xdc_runtime_SysMin_output__I                                              
000071fd  NOROM_SetupGetTrimForXoscHfCtl                                            
0000721d  Power_unregisterNotify                                                    
0000723d  __aeabi_ui2d                                                              
0000725d  ti_sysbios_BIOS_rtsLock__I                                                
0000727d  ti_sysbios_knl_Clock_stop__E                                              
0000729d  xdc_runtime_Registry_findById__E                                          
000072bd  xdc_runtime_SysMin_Module_startup__E                                      
000072dd  PIN_close                                                                 
000072fb  Power_getTransitionLatency                                                
00007319  NOROM_OSCClockSourceGet                                                   
00007335  NOROM_SetupGetTrimForAmpcompTh2                                           
00007351  NOROM_SetupGetTrimForRcOscLfRtuneCtuneTrim                                
000073a5  ti_sysbios_family_arm_cc26xx_Timer_dynamicStub__E                         
000073c1  xdc_runtime_SysMin_exit__E                                                
000073c1  xdc_runtime_System_SupportProxy_exit__E                                   
000073dd  List_remove                                                               
000073f7  memccpy                                                                   
00007411  xdc_runtime_System_printf__E                                              
0000742b  xdc_runtime_System_snprintf__E                                            
00007445  DisplayUart_close                                                         
0000745d  NOROM_AONRTCCurrentCompareValueGet                                        
00007475  NOROM_ChipInfo_GetPackageType                                             
0000748d  NOROM_OSCHF_TurnOnXosc                                                    
000074a5  NOROM_SetupGetTrimForAdcShModeEn                                          
000074bd  NOROM_SetupGetTrimForAdcShVbufEn                                          
000074d5  NOROM_SetupGetTrimForAmpcompTh1                                           
000074ed  NOROM_SetupGetTrimForDblrLoopFilterResetVoltage                           
00007505  NOROM_SetupGetTrimForRcOscLfIBiasTrim                                     
0000751d  NOROM_SetupGetTrimForXoscLfRegulatorAndCmirrwrRatio                       
00007535  Power_idleFunc                                                            
0000754d  UARTCC26XX_init                                                           
00007565  UART_Params_init                                                          
00007595  _args_main                                                                
000075ad  __aeabi_lmul                                                              
000075c5  ti_sysbios_BIOS_rtsUnlock__I                                              
000075dd  ti_sysbios_knl_Swi_or__E                                                  
000075f5  ti_sysbios_rom_cortexm_cc26xx_CC26xx_checkRevision__E                     
0000760d  strchr                                                                    
00007623  strcpy                                                                    
00007639  ti_sysbios_BIOS_exitFunc__I                                               
00007665  NOROM_AONRTCCurrent64BitValueGet                                          
00007679  NOROM_ThisCodeIsBuiltForCC26xxHwRev22AndLater_HaltIfViolated              
0000768d  PIN_getOutputValue                                                        
000076a1  _register_unlock                                                          
000076a7  _register_lock                                                            
000076af  _nop                                                                      
000076b5  strlen                                                                    
000076c9  ti_sysbios_knl_Clock_doTick__I                                            
000076dd  xdc_runtime_Startup_exec__I                                               
000076f1  I2C_Params_init                                                           
00007701  NOROM_SetupGetTrimForXoscHfFastStart                                      
00007711  NOROM_SetupGetTrimForXoscHfIbiastherm                                     
00007741  xdc_runtime_SysMin_ready__E                                               
00007741  xdc_runtime_System_SupportProxy_ready__E                                  
00007751  xdc_runtime_System_vsnprintf__E                                           
00007761  NOROM_SetupSignExtendVddrTrimValue                                        
0000776f  NOROM_VIMSModeGet                                                         
0000777d  __TI_decompress_none                                                      
0000778b  ti_sysbios_family_arm_cc26xx_TimestampProvider_get32__E                   
0000778b  xdc_runtime_Timestamp_SupportProxy_get32__E__mangled__                    
00007799  Display_doClear                                                           
000077a5  NOROM_CPUcpsid                                                            
000077b1  NOROM_CPUcpsie                                                            
000077bd  PIN_registerIntCb                                                         
000077c9  Power_getConstraintMask                                                   
000077d5  Power_getDependencyCount                                                  
000077e1  ti_sysbios_knl_Swi_getTrigger__E                                          
000077ed  xdc_runtime_Startup_reset__I                                              
000077f9  xdc_runtime_Startup_rtsDone__E                                            
00007805  I2CCC26XX_init                                                            
0000780f  I2C_transfer                                                              
00007819  List_empty                                                                
00007823  UART_close                                                                
0000782d  UART_write                                                                
00007847  copysign                                                                  
00007847  copysignl                                                                 
00007857  xdc_runtime_Text_visitRope__I                                             
0000785f  DisplayUart_control                                                       
00007865  DisplayUart_getType                                                       
0000786b  Display_doParamsInit                                                      
00007871  I2CCC26XX_control                                                         
00007877  NOROM_CPUdelay                                                            
0000787d  UARTCC26XX_readPolling                                                    
00007883  UARTCC26XX_writePolling                                                   
00007889  __TI_decompress_rle24                                                     
0000788f  HwiP_disable                                                              
00007893  List_head                                                                 
00007897  List_next                                                                 
0000789f  ti_sysbios_family_arm_cc26xx_Timer_getCount64__E                          
000078a3  xdc_runtime_System_printf_va__F                                           
000078a7  xdc_runtime_System_snprintf_va__F                                         
00007a30  _ctypes_                                                                  
00007b31  Display_defaultParams                                                     
00007b32  xdc_runtime_SysMin_flushAtExit__C                                         
00007b34  BoardGpioInitTable                                                        
00007b9c  resourceDB                                                                
00007ca0  UARTCC26XX_fxnTable                                                       
00007cc8  xdc_runtime_Startup_sfxnTab__A                                            
00007cf0  UART_defaultParams                                                        
00007d14  I2CCC26XX_fxnTable                                                        
00007d34  DisplayUart_fxnTable                                                      
00007d50  Display_config                                                            
00007d68  I2C_config                                                                
00007d80  UART_config                                                               
00007d98  i2cCC26xxHWAttrs                                                          
00007db0  uartCC26XXHWAttrs                                                         
00007dc8  displayUartHWAttrs                                                        
00007ddc  xdc_runtime_Startup_sfxnRts__A                                            
00007df0  PowerCC26XX_config                                                        
00007e00  I2C_defaultParams                                                         
00007e10  xdc_runtime_Startup_firstFxns__A                                          
00007e1c  PINCC26XX_hwAttrs                                                         
00007e24  ti_sysbios_knl_Clock_tickPeriod__C                                        
00007e28  ti_sysbios_knl_Clock_triggerClock__C                                      
00007e2c  ti_sysbios_knl_Idle_funcList__A                                           
00007e30  xdc_runtime_SysMin_bufSize__C                                             
00007e34  xdc_runtime_SysMin_outputFunc__C                                          
00007e38  xdc_runtime_System_extendFxn__C                                           
00007e3c  xdc_runtime_Text_visitRopeFxn__C                                          
00007e40  xdc_runtime_Text_registryModsLastId__C                                    
00007e42  xdc_runtime_Text_unnamedModsLastId__C                                     
00007e44  xdc_runtime_Text_charTab__A                                               
00007e48  __TI_static_base__                                                        
00008144  __TI_Handler_Table_Base                                                   
0000814c  __TI_CINIT_Base                                                           
0000814c  __TI_Handler_Table_Limit                                                  
000081b4  __TI_CINIT_Limit                                                          
0001ffa8  __ccfg                                                                    
1001a001  ti_sysbios_knl_Mailbox_Instance_init__E                                   
1001a0cd  ti_sysbios_knl_Semaphore_pend__E                                          
1001a199  ti_sysbios_heaps_HeapMem_alloc__E                                         
1001a25d  ti_sysbios_knl_Task_Instance_init__E                                      
1001a319  ti_sysbios_family_arm_m3_Hwi_postInit__I                                  
1001a3c9  ti_sysbios_family_arm_m3_Hwi_Instance_init__E                             
1001a469  ti_sysbios_family_arm_cc26xx_Timer_periodicStub__E                        
1001a4fd  ti_sysbios_knl_Task_Instance_finalize__E                                  
1001a591  ti_sysbios_knl_Mailbox_post__E                                            
1001a615  ti_sysbios_knl_Task_postInit__I                                           
1001a699  ti_sysbios_family_arm_m3_Hwi_initNVIC__E                                  
1001a719  ti_sysbios_knl_Clock_startI__E                                            
1001a795  ti_sysbios_heaps_HeapMem_free__E                                          
1001a80d  ti_sysbios_knl_Clock_walkQueueDynamic__E                                  
1001a885  ti_sysbios_knl_Clock_workFunc__E                                          
1001a8fd  ti_sysbios_knl_Mailbox_pend__E                                            
1001a96d  ti_sysbios_knl_Task_sleep__E                                              
1001a9dd  ti_sysbios_knl_Mailbox_Instance_finalize__E                               
1001aa49  ti_sysbios_family_arm_m3_Hwi_dispatchC__I                                 
1001aab1  ti_sysbios_family_arm_m3_Hwi_Object__create__S                            
1001ab15  ti_sysbios_family_arm_m3_Hwi_create                                       
1001ab79  ti_sysbios_hal_Hwi_create                                                 
1001abdd  ti_sysbios_knl_Mailbox_create                                             
1001ac41  ti_sysbios_knl_Semaphore_post__E                                          
1001aca5  ti_sysbios_knl_Swi_Instance_init__E                                       
1001ad05  ti_sysbios_knl_Swi_create                                                 
1001ad61  ti_sysbios_knl_Swi_restoreHwi__E                                          
1001adbd  ti_sysbios_knl_Task_Module_startup__E                                     
1001ae19  ti_sysbios_knl_Task_create                                                
1001ae75  ti_sysbios_knl_Task_startCore__E                                          
1001aed1  ti_sysbios_family_arm_m3_Hwi_Instance_finalize__E                         
1001af29  ti_sysbios_family_arm_m3_Hwi_construct                                    
1001af81  ti_sysbios_knl_Mailbox_construct                                          
1001afd9  ti_sysbios_knl_Swi_run__I                                                 
1001b031  ti_sysbios_knl_Swi_schedule__I                                            
1001b085  ti_sysbios_knl_Swi_construct                                              
1001b0d5  ti_sysbios_knl_Swi_runLoop__I                                             
1001b125  ti_sysbios_knl_Task_construct                                             
1001b175  ti_sysbios_knl_Task_schedule__I                                           
1001b1c1  ti_sysbios_family_arm_m3_Hwi_Module_startup__E                            
1001b209  ti_sysbios_heaps_HeapMem_getStats__E                                      
1001b251  ti_sysbios_knl_Mailbox_Module_startup__E                                  
1001b299  ti_sysbios_family_arm_m3_Hwi_disableInterrupt__E                          
1001b2dd  ti_sysbios_family_arm_m3_Hwi_enableInterrupt__E                           
1001b321  ti_sysbios_knl_Swi_post__E                                                
1001b365  ti_sysbios_knl_Task_allBlockedFunction__I                                 
1001b3a9  ti_sysbios_knl_Task_yield__E                                              
1001b3ed  ti_sysbios_knl_Clock_create                                               
1001b429  ti_sysbios_knl_Task_exit__E                                               
1001b463  ti_sysbios_gates_GateHwi_Instance_init__E                                 
1001b465  ti_sysbios_family_arm_m3_Hwi_getStackInfo__E                              
1001b49d  ti_sysbios_family_arm_m3_TaskSupport_start__E                             
1001b4d5  ti_sysbios_heaps_HeapMem_Instance_init__E                                 
1001b50d  ti_sysbios_knl_Clock_Instance_init__E                                     
1001b545  ti_sysbios_heaps_HeapMem_init__I                                          
1001b579  ti_sysbios_knl_Clock_construct                                            
1001b5ad  ti_sysbios_knl_Semaphore_create                                           
1001b5e1  ti_sysbios_knl_Swi_restore__E                                             
1001b615  ti_sysbios_knl_Task_blockI__E                                             
1001b649  ti_sysbios_gates_GateMutex_Object__create__S                              
1001b679  ti_sysbios_gates_GateMutex_create                                         
1001b6a9  ti_sysbios_gates_GateMutex_enter__E                                       
1001b6d9  ti_sysbios_knl_Clock_getTicks__E                                          
1001b709  ti_sysbios_knl_Semaphore_construct                                        
1001b739  ti_sysbios_knl_Task_processVitalTaskFlag__I                               
1001b769  ti_sysbios_family_arm_cc26xx_Timer_postInit__I                            
1001b795  ti_sysbios_family_arm_cc26xx_Timer_startup__E                             
1001b795  ti_sysbios_knl_Clock_TimerProxy_startup__E                                
1001b7c1  ti_sysbios_family_arm_m3_Hwi_Object__get__S                               
1001b7ed  ti_sysbios_gates_GateMutex_construct                                      
1001b819  ti_sysbios_hal_Hwi_initStack                                              
1001b845  ti_sysbios_heaps_HeapMem_Object__create__S                                
1001b871  ti_sysbios_heaps_HeapMem_Object__get__S                                   
1001b89d  ti_sysbios_knl_Mailbox_Object__get__S                                     
1001b8c9  ti_sysbios_knl_Mailbox_postInit__I                                        
1001b8f5  ti_sysbios_knl_Queue_construct                                            
1001b921  ti_sysbios_knl_Queue_create                                               
1001b94d  ti_sysbios_knl_Semaphore_pendTimeout__I                                   
1001b979  ti_sysbios_knl_Swi_Object__get__S                                         
1001b9a5  ti_sysbios_knl_Task_unblockI__E                                           
1001b9d1  ti_sysbios_family_arm_cc26xx_TimestampProvider_get64__E                   
1001b9d1  xdc_runtime_Timestamp_SupportProxy_get64__E                               
1001b9d1  xdc_runtime_Timestamp_get64__E                                            
1001b9f9  ti_sysbios_hal_Hwi_Instance_init__E                                       
1001ba21  ti_sysbios_knl_Clock_addI__E                                              
1001ba49  ti_sysbios_knl_Task_restore__E                                            
1001ba71  ti_sysbios_family_arm_cc26xx_Timer_Module_startup__E                      
1001ba95  ti_sysbios_gates_GateHwi_Object__create__S                                
1001bab9  ti_sysbios_BIOS_RtsGateProxy_Object__delete__S                            
1001bab9  ti_sysbios_gates_GateMutex_Object__delete__S                              
1001bab9  ti_sysbios_heaps_HeapMem_Module_GateProxy_Object__delete__S               
1001badd  ti_sysbios_knl_Clock_Object__delete__S                                    
1001bb01  ti_sysbios_knl_Semaphore_Instance_init__E                                 
1001bb25  ti_sysbios_knl_Semaphore_Object__delete__S                                
1001bb49  ti_sysbios_family_arm_cc26xx_Timer_Module__startupDone__S                 
1001bb69  ti_sysbios_family_arm_cc26xx_TimestampProvider_Module_startup__E          
1001bb89  ti_sysbios_family_arm_m3_Hwi_Module__startupDone__S                       
1001bba9  ti_sysbios_family_arm_m3_Hwi_Object__delete__S                            
1001bba9  ti_sysbios_hal_Hwi_HwiProxy_Object__delete__S                             
1001bbc9  ti_sysbios_family_arm_m3_Hwi_excHandler__I                                
1001bbe9  ti_sysbios_gates_GateHwi_Handle__label__S                                 
1001bbe9  xdc_runtime_System_Module_GateProxy_Handle__label__S                      
1001bc09  ti_sysbios_gates_GateHwi_Object__delete__S                                
1001bc09  xdc_runtime_System_Module_GateProxy_Object__delete__S                     
1001bc29  ti_sysbios_BIOS_RtsGateProxy_Handle__label__S                             
1001bc29  ti_sysbios_gates_GateMutex_Handle__label__S                               
1001bc29  ti_sysbios_heaps_HeapMem_Module_GateProxy_Handle__label__S                
1001bc49  ti_sysbios_gates_GateMutex_Object__destruct__S                            
1001bc69  ti_sysbios_hal_Hwi_Object__delete__S                                      
1001bc89  ti_sysbios_heaps_HeapMem_Handle__label__S                                 
1001bc89  xdc_runtime_Memory_HeapProxy_Handle__label__S                             
1001bca9  ti_sysbios_heaps_HeapMem_Object__delete__S                                
1001bca9  xdc_runtime_Memory_HeapProxy_Object__delete__S                            
1001bcc9  ti_sysbios_knl_Clock_Module_startup__E                                    
1001bce9  ti_sysbios_knl_Clock_Object__destruct__S                                  
1001bd09  ti_sysbios_knl_Idle_run__E                                                
1001bd29  ti_sysbios_knl_Mailbox_Object__delete__S                                  
1001bd49  ti_sysbios_knl_Queue_Object__delete__S                                    
1001bd69  ti_sysbios_knl_Queue_Object__get__S                                       
1001bd89  ti_sysbios_knl_Semaphore_Object__destruct__S                              
1001bda9  ti_sysbios_knl_Swi_Object__delete__S                                      
1001bdc9  ti_sysbios_knl_Task_Object__delete__S                                     
1001bde9  ti_sysbios_knl_Task_Object__get__S                                        
1001be09  ti_sysbios_knl_Task_enter__I                                              
1001be29  ti_sysbios_knl_Task_restoreHwi__E                                         
1001be49  ti_sysbios_hal_Hwi_HwiProxy_create                                        
1001be67  ti_sysbios_knl_Clock_logTick__E                                           
1001be69  ti_sysbios_family_arm_m3_Hwi_Object__destruct__S                          
1001be85  ti_sysbios_family_arm_m3_Hwi_setPriority__E                               
1001bea1  ti_sysbios_gates_GateMutex_Instance_init__E                               
1001bebd  ti_sysbios_knl_Clock_scheduleNextTick__E                                  
1001bed9  ti_sysbios_knl_Mailbox_Object__destruct__S                                
1001bef5  ti_sysbios_knl_Queue_Object__destruct__S                                  
1001bf11  ti_sysbios_knl_Queue_get__E                                               
1001bf2d  ti_sysbios_knl_Queue_put__E                                               
1001bf49  ti_sysbios_knl_Swi_Object__destruct__S                                    
1001bf65  ti_sysbios_knl_Task_Object__destruct__S                                   
1001bf81  ti_sysbios_knl_Task_sleepTimeout__I                                       
1001bf9b  ti_sysbios_knl_Swi_Instance_finalize__E                                   
1001bf9d  ti_sysbios_gates_GateMutex_leave__E                                       
1001bfb5  ti_sysbios_knl_Task_unblock__E                                            
1001bfcd  ti_sysbios_knl_Clock_Instance_finalize__E                                 
1001bfe3  ti_sysbios_knl_Clock_start__E                                             
1001bff9  ti_sysbios_BIOS_getCpuFreq__E                                             
1001c00d  ti_sysbios_family_arm_m3_Hwi_switchFromBootStack__E                       
1001c021  ti_sysbios_hal_Hwi_Module_startup__E                                      
1001c035  ti_sysbios_BIOS_exit__E                                                   
1001c045  ti_sysbios_BIOS_setThreadType__E                                          
1001c055  ti_sysbios_BIOS_start__E                                                  
1001c065  ti_sysbios_family_arm_m3_Hwi_plug__E                                      
1001c075  ti_sysbios_gates_GateMutex_Instance_finalize__E                           
1001c085  ti_sysbios_hal_Hwi_HwiProxy_Object__create__S                             
1001c095  ti_sysbios_knl_Clock_TimerProxy_getCurrentTick__E                         
1001c0a5  ti_sysbios_knl_Clock_TimerProxy_getMaxTicks__E                            
1001c0b5  ti_sysbios_knl_Clock_TimerProxy_setNextTick__E                            
1001c0c5  ti_sysbios_knl_Semaphore_Instance_finalize__E                             
1001c0d5  ti_sysbios_knl_Swi_disable__E                                             
1001c0e5  ti_sysbios_knl_Swi_enabled__E                                             
1001c0f5  ti_sysbios_knl_Task_disable__E                                            
1001c105  ti_sysbios_heaps_HeapMem_restore__E                                       
1001c113  ti_sysbios_knl_Queue_empty__E                                             
1001c121  ti_sysbios_knl_Queue_remove__E                                            
1001c12f  ti_sysbios_family_arm_cc26xx_TimestampProvider_getFreq__E                 
1001c12f  xdc_runtime_Timestamp_SupportProxy_getFreq__E                             
1001c12f  xdc_runtime_Timestamp_getFreq__E                                          
1001c13d  ti_sysbios_family_arm_m3_Hwi_Params__init__S                              
1001c13d  ti_sysbios_hal_Hwi_HwiProxy_Params__init__S                               
1001c149  ti_sysbios_family_arm_m3_Hwi_disableFxn__E                                
1001c155  ti_sysbios_family_arm_m3_Hwi_enableFxn__E                                 
1001c161  ti_sysbios_family_arm_m3_TaskSupport_getStackAlignment__E                 
1001c16d  ti_sysbios_gates_GateHwi_enter__E                                         
1001c179  ti_sysbios_BIOS_RtsGateProxy_Params__init__S                              
1001c179  ti_sysbios_gates_GateMutex_Params__init__S                                
1001c179  ti_sysbios_heaps_HeapMem_Module_GateProxy_Params__init__S                 
1001c185  ti_sysbios_knl_Clock_Params__init__S                                      
1001c191  ti_sysbios_knl_Clock_getTimerHandle__E                                    
1001c19d  ti_sysbios_knl_Mailbox_Params__init__S                                    
1001c1a9  ti_sysbios_knl_Queue_dequeue__E                                           
1001c1b5  ti_sysbios_knl_Queue_enqueue__E                                           
1001c1c1  ti_sysbios_knl_Semaphore_Params__init__S                                  
1001c1cd  ti_sysbios_knl_Swi_Params__init__S                                        
1001c1d9  ti_sysbios_knl_Task_Params__init__S                                       
1001c1e5  ti_sysbios_knl_Task_self__E                                               
1001c1f1  ti_sysbios_hal_Hwi_Instance_finalize__E                                   
1001c1fb  ti_sysbios_family_arm_m3_Hwi_doSwiRestore__I                              
1001c203  ti_sysbios_family_arm_m3_Hwi_startup__E                                   
1001c20b  ti_sysbios_knl_Idle_loop__E                                               
1001c213  ti_sysbios_family_arm_m3_Hwi_doTaskRestore__I                             
1001c219  ti_sysbios_family_arm_m3_Hwi_restoreFxn__E                                
1001c21f  ti_sysbios_gates_GateHwi_leave__E                                         
1001c22b  ti_sysbios_knl_Queue_Instance_init__E                                     
1001c231  ti_sysbios_knl_Queue_elemClear__E                                         
1001c237  ti_sysbios_knl_Swi_Module_startup__E                                      
1001c23d  ti_sysbios_knl_Swi_startup__E                                             
1001c243  ti_sysbios_knl_Task_enable__E                                             
1001c249  ti_sysbios_BIOS_RtsGateProxy_enter__E                                     
1001c24d  ti_sysbios_BIOS_RtsGateProxy_leave__E                                     
1001c251  ti_sysbios_family_arm_cc26xx_Timer_getExpiredTicks__E                     
1001c255  ti_sysbios_family_arm_cc26xx_Timer_getPeriod__E                           
1001c259  ti_sysbios_family_arm_cc26xx_Timer_setPeriod__E                           
1001c25d  ti_sysbios_family_arm_m3_Hwi_delete                                       
1001c261  ti_sysbios_family_arm_m3_Hwi_destruct                                     
1001c265  ti_sysbios_family_arm_m3_TaskSupport_Module__startupDone__S               
1001c269  ti_sysbios_gates_GateHwi_query__E                                         
1001c269  xdc_runtime_System_Module_GateProxy_query__E                              
1001c26d  ti_sysbios_gates_GateMutex_delete                                         
1001c271  ti_sysbios_gates_GateMutex_destruct                                       
1001c275  ti_sysbios_BIOS_RtsGateProxy_query__E                                     
1001c275  ti_sysbios_gates_GateMutex_query__E                                       
1001c275  ti_sysbios_heaps_HeapMem_Module_GateProxy_query__E                        
1001c279  ti_sysbios_hal_Hwi_HwiProxy_Module__startupDone__S                        
1001c27d  ti_sysbios_hal_Hwi_HwiProxy_delete                                        
1001c281  ti_sysbios_hal_Hwi_HwiProxy_disableInterrupt__E                           
1001c281  ti_sysbios_hal_Hwi_disableInterrupt__E                                    
1001c285  ti_sysbios_hal_Hwi_HwiProxy_enableInterrupt__E                            
1001c285  ti_sysbios_hal_Hwi_enableInterrupt__E                                     
1001c289  ti_sysbios_hal_Hwi_HwiProxy_getStackInfo__E                               
1001c289  ti_sysbios_hal_Hwi_getStackInfo__E                                        
1001c28d  ti_sysbios_hal_Hwi_HwiProxy_startup__E                                    
1001c28d  ti_sysbios_hal_Hwi_startup__E                                             
1001c291  ti_sysbios_hal_Hwi_HwiProxy_switchFromBootStack__E                        
1001c295  ti_sysbios_hal_Hwi_delete                                                 
1001c299  ti_sysbios_hal_Hwi_switchFromBootStack__E                                 
1001c29d  ti_sysbios_heaps_HeapMem_Module_GateProxy_enter__E                        
1001c2a1  ti_sysbios_heaps_HeapMem_Module_GateProxy_leave__E                        
1001c2a5  ti_sysbios_heaps_HeapMem_isBlocking__E                                    
1001c2a9  ti_sysbios_knl_Clock_TimerProxy_Module__startupDone__S                    
1001c2ad  ti_sysbios_knl_Clock_TimerProxy_getExpiredTicks__E                        
1001c2b1  ti_sysbios_knl_Clock_TimerProxy_getPeriod__E                              
1001c2b5  ti_sysbios_knl_Clock_delete                                               
1001c2b9  ti_sysbios_knl_Clock_destruct                                             
1001c2bd  ti_sysbios_knl_Clock_removeI__E                                           
1001c2c1  ti_sysbios_knl_Clock_setTimeout__E                                        
1001c2c5  ti_sysbios_knl_Mailbox_delete                                             
1001c2c9  ti_sysbios_knl_Mailbox_destruct                                           
1001c2cd  ti_sysbios_knl_Queue_delete                                               
1001c2d1  ti_sysbios_knl_Queue_destruct                                             
1001c2d5  ti_sysbios_knl_Queue_head__E                                              
1001c2d9  ti_sysbios_knl_Queue_next__E                                              
1001c2dd  ti_sysbios_knl_Semaphore_delete                                           
1001c2e1  ti_sysbios_knl_Semaphore_destruct                                         
1001c2e5  ti_sysbios_knl_Swi_delete                                                 
1001c2e9  ti_sysbios_knl_Swi_destruct                                               
1001c2ed  ti_sysbios_knl_Swi_postInit__I                                            
1001c2f1  ti_sysbios_knl_Task_SupportProxy_Module__startupDone__S                   
1001c2f5  ti_sysbios_knl_Task_SupportProxy_getStackAlignment__E                     
1001c2f9  ti_sysbios_knl_Task_SupportProxy_start__E                                 
1001c2fd  ti_sysbios_knl_Task_SupportProxy_swap__E                                  
1001c301  ti_sysbios_knl_Task_delete                                                
1001c305  ti_sysbios_knl_Task_destruct                                              
1001c309  ti_sysbios_knl_Task_startup__E                                            
1001c30d  xdc_runtime_Startup_startMods__I                                          
1001c405  xdc_runtime_Core_createObject__I                                          
1001c487  xdc_runtime_Error_policySpin__E                                           
1001c489  xdc_runtime_Memory_alloc__E                                               
1001c4f9  xdc_runtime_Core_deleteObject__I                                          
1001c559  xdc_runtime_Startup_exec__E                                               
1001c5a9  xdc_runtime_Assert_raise__I                                               
1001c5f1  xdc_runtime_Core_assignParams__I                                          
1001c639  xdc_runtime_Core_constructObject__I                                       
1001c681  xdc_runtime_System_atexit__E                                              
1001c6b9  xdc_runtime_System_processAtExit__E                                       
1001c6ed  xdc_runtime_Core_assignLabel__I                                           
1001c71d  xdc_runtime_Text_cordText__E                                              
1001c749  xdc_runtime_System_abort__E                                               
1001c769  xdc_runtime_Error_raiseX__E                                               
1001c785  xdc_runtime_Memory_valloc__E                                              
1001c7a1  xdc_runtime_Core_destructObject__I                                        
1001c7b9  xdc_runtime_Error_check__E                                                
1001c7d1  xdc_runtime_System_exit__E                                                
1001c7e9  xdc_runtime_Text_ropeText__E                                              
1001c801  xdc_runtime_Memory_free__E                                                
1001c811  xdc_runtime_SysCallback_abort__E                                          
1001c821  xdc_runtime_SysCallback_exit__E                                           
1001c831  xdc_runtime_Timestamp_SupportProxy_get32__E                               
1001c831  xdc_runtime_Timestamp_get32__E                                            
1001c841  xdc_runtime_Error_init__E                                                 
1001c84d  xdc_runtime_Memory_calloc__E                                              
1001c859  xdc_runtime_Memory_getMaxDefaultTypeAlign__E                              
1001c879  xdc_runtime_Gate_leaveSystem__E                                           
1001c87f  xdc_runtime_System_Module_startup__E                                      
1001c885  xdc_runtime_Gate_enterSystem__E                                           
1001c889  xdc_runtime_Memory_HeapProxy_alloc__E                                     
1001c88d  xdc_runtime_Memory_HeapProxy_free__E                                      
1001c891  xdc_runtime_System_Module_GateProxy_enter__E                              
1001c895  xdc_runtime_System_Module_GateProxy_leave__E                              
1001c899  xdc_runtime_System_abortSpin__E                                           
1001c89b  xdc_runtime_System_exitSpin__E                                            
1001c89d  ti_sysbios_family_arm_m3_Hwi_dispatch__I                                  
1001c96d  ti_sysbios_family_arm_m3_TaskSupport_buildTaskStack                       
1001c9b9  ti_sysbios_family_arm_m3_Hwi_initStacks__E                                
1001ca01  ti_sysbios_family_arm_m3_Hwi_excHandlerAsm__I                             
1001ca21  ti_sysbios_family_xxx_Hwi_switchAndRunFunc                                
1001ca3f  ti_sysbios_family_arm_m3_Hwi_pendSV__I                                    
1001ca57  ti_sysbios_family_arm_m3_Hwi_return                                       
1001ca59  ti_sysbios_family_arm_m3_TaskSupport_glue                                 
1001ca69  ti_sysbios_family_arm_m3_TaskSupport_swap__E                              
1001ca71  ti_sysbios_knl_Task_swapReturn                                            
1001ca9b  ti_sysbios_rom_cortexm_cc26xx_CC26xx_getRevision__E                       
20000000  ti_sysbios_family_arm_m3_Hwi_ramVectors                                   
20000100  ti_sysbios_knl_Task_Module__state__V                                      
20000144  ti_sysbios_family_arm_m3_Hwi_Module__state__V                             
20000178  ti_sysbios_knl_Clock_Module__state__V                                     
200001a4  ti_sysbios_BIOS_Module__state__V                                          
200001c8  ti_sysbios_knl_Swi_Module__state__V                                       
200001e4  ti_sysbios_family_arm_cc26xx_Timer_Module__state__V                       
200001ec  ti_sysbios_family_arm_cc26xx_TimestampProvider_Module__state__V           
200001f0  xdc_runtime_Startup_Module__state__V                                      
200001f8  xdc_runtime_System_Module__state__V                                       
20000200  xdc_runtime_Memory_Module__state__V                                       
20000208  labTaskStack                                                              
20000a08  ti_sysbios_heaps_HeapMem_Instance_State_0_buf__A                          
20000e08  ti_sysbios_knl_Task_Instance_State_0_stack__A                             
20001008  __CIOBUF_                                                                 
20001128  uartCC26XXObjects                                                         
2000123c  i2cCC26xxObjects                                                          
2000131c  ti_sysbios_family_arm_m3_Hwi_dispatchTable                                
20001464  xdc_runtime_SysMin_Module_State_0_outbuf__A                               
200014e4  PIN_HandleTable                                                           
200015b4  displayUartObject                                                         
20001650  PIN_NumPins                                                               
20001658  driverlib_release_0_46593                                                 
20001660  PowerCC26XX_module                                                        
20001770  ti_sysbios_knl_Task_Object__table__V                                      
200017c0  ti_sysbios_family_arm_cc26xx_Timer_Object__table__V                       
20001808  ti_sysbios_gates_GateMutex_Object__table__V                               
20001840  ti_sysbios_knl_Swi_Module_State_0_readyQ__A                               
20001870  ti_sysbios_knl_Swi_Object__table__V                                       
200018a0  ti_sysbios_knl_Clock_Object__table__V                                     
200018c0  ti_sysbios_knl_Task_Module_State_0_readyQ__A                              
200018e0  ti_sysbios_family_arm_m3_Hwi_Object__table__V                             
200018f8  ti_sysbios_heaps_HeapMem_Object__table__V                                 
20001910  xdc_runtime_SysMin_Module__state__V                                       
2000191c  _lock                                                                     
20001920  _unlock                                                                   
20001924  buttonConfig                                                              
2000192c  ledConfig                                                                 
20001934  ti_sysbios_family_arm_m3_Hwi_Module__root__V                              
2000193c  ti_sysbios_gates_GateHwi_Module__root__V                                  
20001944  ti_sysbios_gates_GateMutex_Module__root__V                                
2000194c  ti_sysbios_hal_Hwi_Module__root__V                                        
20001954  ti_sysbios_heaps_HeapMem_Module__root__V                                  
2000195c  ti_sysbios_knl_Clock_Module__root__V                                      
20001964  ti_sysbios_knl_Mailbox_Module__root__V                                    
2000196c  ti_sysbios_knl_Queue_Module__root__V                                      
20001974  ti_sysbios_knl_Semaphore_Module__root__V                                  
2000197c  ti_sysbios_knl_Swi_Module__root__V                                        
20001984  ti_sysbios_knl_Task_Module__root__V                                       
2000198c  xdc_runtime_Registry_Module__state__V                                     
20001994  xdc_runtime_System_Module_State_0_atexitHandlers__A                       
200019a0  errno                                                                     
200019a4  main_func_sp                                                              
200019a8  ti_sysbios_family_arm_m3_Hwi_Module_State_0_excContext__A                 
200019ac  ti_sysbios_family_arm_m3_Hwi_Module_State_0_excStack__A                   
200019b0  ti_sysbios_knl_Task_Module_State_0_idleTask__A                            
200019b4  ti_sysbios_family_arm_m3_Hwi_Module_State_0_excActive__A                  
20004d00  __stack                                                                   
20005000  __STACK_END                                                               
e000e000  ti_sysbios_family_arm_m3_Hwi_nvic                                         
ffffffff  __TI_pprof_out_hndl                                                       
ffffffff  __TI_prof_data_size                                                       
ffffffff  __TI_prof_data_start                                                      
ffffffff  __binit__                                                                 
ffffffff  __c_args__                                                                
ffffffff  binit                                                                     
UNDEFED   HwiP_restore                                                              
UNDEFED   SHT$$INIT_ARRAY$$Base                                                     
UNDEFED   SHT$$INIT_ARRAY$$Limit                                                    
UNDEFED   ti_sysbios_BIOS_RtsGateProxy_Handle__label__S__mangled__                  
UNDEFED   ti_sysbios_BIOS_RtsGateProxy_Object__delete__S__mangled__                 
UNDEFED   ti_sysbios_BIOS_RtsGateProxy_Params__init__S__mangled__                   
UNDEFED   ti_sysbios_BIOS_RtsGateProxy_query__E__mangled__                          
UNDEFED   ti_sysbios_hal_Hwi_HwiProxy_Module__startupDone__S__mangled__             
UNDEFED   ti_sysbios_hal_Hwi_HwiProxy_Object__delete__S__mangled__                  
UNDEFED   ti_sysbios_hal_Hwi_HwiProxy_Params__init__S__mangled__                    
UNDEFED   ti_sysbios_hal_Hwi_HwiProxy_disableInterrupt__E__mangled__                
UNDEFED   ti_sysbios_hal_Hwi_HwiProxy_enableInterrupt__E__mangled__                 
UNDEFED   ti_sysbios_hal_Hwi_HwiProxy_getStackInfo__E__mangled__                    
UNDEFED   ti_sysbios_hal_Hwi_HwiProxy_startup__E__mangled__                         
UNDEFED   ti_sysbios_hal_Hwi_HwiProxy_switchFromBootStack__E__mangled__             
UNDEFED   ti_sysbios_hal_Hwi_disableInterrupt__E                                    
UNDEFED   ti_sysbios_hal_Hwi_enableInterrupt__E                                     
UNDEFED   ti_sysbios_hal_Hwi_getStackInfo__E                                        
UNDEFED   ti_sysbios_hal_Hwi_startup__E                                             
UNDEFED   ti_sysbios_hal_Hwi_switchFromBootStack__E                                 
UNDEFED   ti_sysbios_heaps_HeapMem_Module_GateProxy_Handle__label__S__mangled__     
UNDEFED   ti_sysbios_heaps_HeapMem_Module_GateProxy_Object__delete__S__mangled__    
UNDEFED   ti_sysbios_heaps_HeapMem_Module_GateProxy_Params__init__S__mangled__      
UNDEFED   ti_sysbios_heaps_HeapMem_Module_GateProxy_query__E__mangled__             
UNDEFED   ti_sysbios_knl_Clock_TimerProxy_Module__startupDone__S__mangled__         
UNDEFED   ti_sysbios_knl_Clock_TimerProxy_startup__E__mangled__                     
UNDEFED   ti_sysbios_knl_Task_SupportProxy_Module__startupDone__S__mangled__        
UNDEFED   ti_sysbios_knl_Task_SupportProxy_getStackAlignment__E__mangled__          
UNDEFED   ti_sysbios_knl_Task_SupportProxy_start__E__mangled__                      
UNDEFED   ti_sysbios_knl_Task_SupportProxy_swap__E__mangled__                       
UNDEFED   xdc_runtime_Main_Module_GateProxy_Handle__label__S                        
UNDEFED   xdc_runtime_Main_Module_GateProxy_Object__delete__S                       
UNDEFED   xdc_runtime_Main_Module_GateProxy_query__E                                
UNDEFED   xdc_runtime_Memory_HeapProxy_Handle__label__S__mangled__                  
UNDEFED   xdc_runtime_Memory_HeapProxy_Object__delete__S__mangled__                 
UNDEFED   xdc_runtime_System_Module_GateProxy_Handle__label__S__mangled__           
UNDEFED   xdc_runtime_System_Module_GateProxy_Object__delete__S__mangled__          
UNDEFED   xdc_runtime_System_Module_GateProxy_query__E__mangled__                   
UNDEFED   xdc_runtime_Timestamp_SupportProxy_get64__E__mangled__                    
UNDEFED   xdc_runtime_Timestamp_SupportProxy_getFreq__E__mangled__                  
UNDEFED   xdc_runtime_Timestamp_get32__E                                            
UNDEFED   xdc_runtime_Timestamp_get64__E                                            
UNDEFED   xdc_runtime_Timestamp_getFreq__E                                          

[833 symbols]
